(lp0
(lp1
(I0
I0
tp2
a(I0
I9
tp3
a(I9
I9
tp4
a(I9
I0
tp5
aa(lp6
(I0
I10
tp7
a(I0
I19
tp8
a(I9
I19
tp9
a(I9
I10
tp10
aa(lp11
(I0
I20
tp12
a(I0
I29
tp13
a(I9
I29
tp14
a(I9
I20
tp15
aa(lp16
(I0
I30
tp17
a(I0
I39
tp18
a(I9
I39
tp19
a(I9
I30
tp20
aa(lp21
(I0
I40
tp22
a(I0
I49
tp23
a(I9
I49
tp24
a(I9
I40
tp25
aa(lp26
(I0
I50
tp27
a(I0
I59
tp28
a(I9
I59
tp29
a(I9
I50
tp30
aa(lp31
(I0
I60
tp32
a(I0
I69
tp33
a(I9
I69
tp34
a(I9
I60
tp35
aa(lp36
(I0
I70
tp37
a(I0
I79
tp38
a(I9
I79
tp39
a(I9
I70
tp40
aa(lp41
(I0
I80
tp42
a(I0
I89
tp43
a(I9
I89
tp44
a(I9
I80
tp45
aa(lp46
(I0
I90
tp47
a(I0
I99
tp48
a(I9
I99
tp49
a(I9
I90
tp50
aa(lp51
(I0
I100
tp52
a(I0
I109
tp53
a(I9
I109
tp54
a(I9
I100
tp55
aa(lp56
(I0
I110
tp57
a(I0
I119
tp58
a(I9
I119
tp59
a(I9
I110
tp60
aa(lp61
(I0
I120
tp62
a(I0
I129
tp63
a(I9
I129
tp64
a(I9
I120
tp65
aa(lp66
(I0
I130
tp67
a(I0
I139
tp68
a(I9
I139
tp69
a(I9
I130
tp70
aa(lp71
(I0
I140
tp72
a(I0
I149
tp73
a(I9
I149
tp74
a(I9
I140
tp75
aa(lp76
(I0
I150
tp77
a(I0
I159
tp78
a(I9
I159
tp79
a(I9
I150
tp80
aa(lp81
(I0
I160
tp82
a(I0
I169
tp83
a(I9
I169
tp84
a(I9
I160
tp85
aa(lp86
(I0
I170
tp87
a(I0
I179
tp88
a(I9
I179
tp89
a(I9
I170
tp90
aa(lp91
(I0
I180
tp92
a(I0
I189
tp93
a(I9
I189
tp94
a(I9
I180
tp95
aa(lp96
(I0
I190
tp97
a(I0
I199
tp98
a(I9
I199
tp99
a(I9
I190
tp100
aa(lp101
(I0
I200
tp102
a(I0
I209
tp103
a(I9
I209
tp104
a(I9
I200
tp105
aa(lp106
(I0
I210
tp107
a(I0
I219
tp108
a(I9
I219
tp109
a(I9
I210
tp110
aa(lp111
(I0
I220
tp112
a(I0
I229
tp113
a(I9
I229
tp114
a(I9
I220
tp115
aa(lp116
(I0
I230
tp117
a(I0
I239
tp118
a(I9
I239
tp119
a(I9
I230
tp120
aa(lp121
(I0
I240
tp122
a(I0
I249
tp123
a(I9
I249
tp124
a(I9
I240
tp125
aa(lp126
(I10
I0
tp127
a(I10
I9
tp128
a(I19
I9
tp129
a(I19
I0
tp130
aa(lp131
(I10
I10
tp132
a(I10
I19
tp133
a(I19
I19
tp134
a(I19
I10
tp135
aa(lp136
(I10
I20
tp137
a(I10
I29
tp138
a(I19
I29
tp139
a(I19
I20
tp140
aa(lp141
(I10
I30
tp142
a(I10
I39
tp143
a(I19
I39
tp144
a(I19
I30
tp145
aa(lp146
(I10
I40
tp147
a(I10
I49
tp148
a(I19
I49
tp149
a(I19
I40
tp150
aa(lp151
(I10
I50
tp152
a(I10
I59
tp153
a(I19
I59
tp154
a(I19
I50
tp155
aa(lp156
(I10
I60
tp157
a(I10
I69
tp158
a(I19
I69
tp159
a(I19
I60
tp160
aa(lp161
(I10
I70
tp162
a(I10
I79
tp163
a(I19
I79
tp164
a(I19
I70
tp165
aa(lp166
(I10
I80
tp167
a(I10
I89
tp168
a(I19
I89
tp169
a(I19
I80
tp170
aa(lp171
(I10
I90
tp172
a(I10
I99
tp173
a(I19
I99
tp174
a(I19
I90
tp175
aa(lp176
(I10
I100
tp177
a(I10
I109
tp178
a(I19
I109
tp179
a(I19
I100
tp180
aa(lp181
(I10
I110
tp182
a(I10
I119
tp183
a(I19
I119
tp184
a(I19
I110
tp185
aa(lp186
(I10
I120
tp187
a(I10
I129
tp188
a(I19
I129
tp189
a(I19
I120
tp190
aa(lp191
(I10
I130
tp192
a(I10
I139
tp193
a(I19
I139
tp194
a(I19
I130
tp195
aa(lp196
(I10
I140
tp197
a(I10
I149
tp198
a(I19
I149
tp199
a(I19
I140
tp200
aa(lp201
(I10
I150
tp202
a(I10
I159
tp203
a(I19
I159
tp204
a(I19
I150
tp205
aa(lp206
(I10
I160
tp207
a(I10
I169
tp208
a(I19
I169
tp209
a(I19
I160
tp210
aa(lp211
(I10
I170
tp212
a(I10
I179
tp213
a(I19
I179
tp214
a(I19
I170
tp215
aa(lp216
(I10
I180
tp217
a(I10
I189
tp218
a(I19
I189
tp219
a(I19
I180
tp220
aa(lp221
(I10
I190
tp222
a(I10
I199
tp223
a(I19
I199
tp224
a(I19
I190
tp225
aa(lp226
(I10
I200
tp227
a(I10
I209
tp228
a(I19
I209
tp229
a(I19
I200
tp230
aa(lp231
(I10
I210
tp232
a(I10
I219
tp233
a(I19
I219
tp234
a(I19
I210
tp235
aa(lp236
(I10
I220
tp237
a(I10
I229
tp238
a(I19
I229
tp239
a(I19
I220
tp240
aa(lp241
(I10
I230
tp242
a(I10
I239
tp243
a(I19
I239
tp244
a(I19
I230
tp245
aa(lp246
(I10
I240
tp247
a(I10
I249
tp248
a(I19
I249
tp249
a(I19
I240
tp250
aa(lp251
(I20
I0
tp252
a(I20
I9
tp253
a(I29
I9
tp254
a(I29
I0
tp255
aa(lp256
(I20
I10
tp257
a(I20
I19
tp258
a(I29
I19
tp259
a(I29
I10
tp260
aa(lp261
(I20
I20
tp262
a(I20
I29
tp263
a(I29
I29
tp264
a(I29
I20
tp265
aa(lp266
(I20
I30
tp267
a(I20
I39
tp268
a(I29
I39
tp269
a(I29
I30
tp270
aa(lp271
(I20
I40
tp272
a(I20
I49
tp273
a(I29
I49
tp274
a(I29
I40
tp275
aa(lp276
(I20
I50
tp277
a(I20
I59
tp278
a(I29
I59
tp279
a(I29
I50
tp280
aa(lp281
(I20
I60
tp282
a(I20
I69
tp283
a(I29
I69
tp284
a(I29
I60
tp285
aa(lp286
(I20
I70
tp287
a(I20
I79
tp288
a(I29
I79
tp289
a(I29
I70
tp290
aa(lp291
(I20
I80
tp292
a(I20
I89
tp293
a(I29
I89
tp294
a(I29
I80
tp295
aa(lp296
(I20
I90
tp297
a(I20
I99
tp298
a(I29
I99
tp299
a(I29
I90
tp300
aa(lp301
(I20
I100
tp302
a(I20
I109
tp303
a(I29
I109
tp304
a(I29
I100
tp305
aa(lp306
(I20
I110
tp307
a(I20
I119
tp308
a(I29
I119
tp309
a(I29
I110
tp310
aa(lp311
(I20
I120
tp312
a(I20
I129
tp313
a(I29
I129
tp314
a(I29
I120
tp315
aa(lp316
(I20
I130
tp317
a(I20
I139
tp318
a(I29
I139
tp319
a(I29
I130
tp320
aa(lp321
(I20
I140
tp322
a(I20
I149
tp323
a(I29
I149
tp324
a(I29
I140
tp325
aa(lp326
(I20
I150
tp327
a(I20
I159
tp328
a(I29
I159
tp329
a(I29
I150
tp330
aa(lp331
(I20
I160
tp332
a(I20
I169
tp333
a(I29
I169
tp334
a(I29
I160
tp335
aa(lp336
(I20
I170
tp337
a(I20
I179
tp338
a(I29
I179
tp339
a(I29
I170
tp340
aa(lp341
(I20
I180
tp342
a(I20
I189
tp343
a(I29
I189
tp344
a(I29
I180
tp345
aa(lp346
(I20
I190
tp347
a(I20
I199
tp348
a(I29
I199
tp349
a(I29
I190
tp350
aa(lp351
(I20
I200
tp352
a(I20
I209
tp353
a(I29
I209
tp354
a(I29
I200
tp355
aa(lp356
(I20
I210
tp357
a(I20
I219
tp358
a(I29
I219
tp359
a(I29
I210
tp360
aa(lp361
(I20
I220
tp362
a(I20
I229
tp363
a(I29
I229
tp364
a(I29
I220
tp365
aa(lp366
(I20
I230
tp367
a(I20
I239
tp368
a(I29
I239
tp369
a(I29
I230
tp370
aa(lp371
(I20
I240
tp372
a(I20
I249
tp373
a(I29
I249
tp374
a(I29
I240
tp375
aa(lp376
(I30
I0
tp377
a(I30
I9
tp378
a(I39
I9
tp379
a(I39
I0
tp380
aa(lp381
(I30
I10
tp382
a(I30
I19
tp383
a(I39
I19
tp384
a(I39
I10
tp385
aa(lp386
(I30
I20
tp387
a(I30
I29
tp388
a(I39
I29
tp389
a(I39
I20
tp390
aa(lp391
(I30
I30
tp392
a(I30
I39
tp393
a(I39
I39
tp394
a(I39
I30
tp395
aa(lp396
(I30
I40
tp397
a(I30
I49
tp398
a(I39
I49
tp399
a(I39
I40
tp400
aa(lp401
(I30
I50
tp402
a(I30
I59
tp403
a(I39
I59
tp404
a(I39
I50
tp405
aa(lp406
(I30
I60
tp407
a(I30
I69
tp408
a(I39
I69
tp409
a(I39
I60
tp410
aa(lp411
(I30
I70
tp412
a(I30
I79
tp413
a(I39
I79
tp414
a(I39
I70
tp415
aa(lp416
(I30
I80
tp417
a(I30
I89
tp418
a(I39
I89
tp419
a(I39
I80
tp420
aa(lp421
(I30
I90
tp422
a(I30
I99
tp423
a(I39
I99
tp424
a(I39
I90
tp425
aa(lp426
(I30
I100
tp427
a(I30
I109
tp428
a(I39
I109
tp429
a(I39
I100
tp430
aa(lp431
(I30
I110
tp432
a(I30
I119
tp433
a(I39
I119
tp434
a(I39
I110
tp435
aa(lp436
(I30
I120
tp437
a(I30
I129
tp438
a(I39
I129
tp439
a(I39
I120
tp440
aa(lp441
(I30
I130
tp442
a(I30
I139
tp443
a(I39
I139
tp444
a(I39
I130
tp445
aa(lp446
(I30
I140
tp447
a(I30
I149
tp448
a(I39
I149
tp449
a(I39
I140
tp450
aa(lp451
(I30
I150
tp452
a(I30
I159
tp453
a(I39
I159
tp454
a(I39
I150
tp455
aa(lp456
(I30
I160
tp457
a(I30
I169
tp458
a(I39
I169
tp459
a(I39
I160
tp460
aa(lp461
(I30
I170
tp462
a(I30
I179
tp463
a(I39
I179
tp464
a(I39
I170
tp465
aa(lp466
(I30
I180
tp467
a(I30
I189
tp468
a(I39
I189
tp469
a(I39
I180
tp470
aa(lp471
(I30
I190
tp472
a(I30
I199
tp473
a(I39
I199
tp474
a(I39
I190
tp475
aa(lp476
(I30
I200
tp477
a(I30
I209
tp478
a(I39
I209
tp479
a(I39
I200
tp480
aa(lp481
(I30
I210
tp482
a(I30
I219
tp483
a(I39
I219
tp484
a(I39
I210
tp485
aa(lp486
(I30
I220
tp487
a(I30
I229
tp488
a(I39
I229
tp489
a(I39
I220
tp490
aa(lp491
(I30
I230
tp492
a(I30
I239
tp493
a(I39
I239
tp494
a(I39
I230
tp495
aa(lp496
(I30
I240
tp497
a(I30
I249
tp498
a(I39
I249
tp499
a(I39
I240
tp500
aa(lp501
(I40
I0
tp502
a(I40
I9
tp503
a(I49
I9
tp504
a(I49
I0
tp505
aa(lp506
(I40
I10
tp507
a(I40
I19
tp508
a(I49
I19
tp509
a(I49
I10
tp510
aa(lp511
(I40
I20
tp512
a(I40
I29
tp513
a(I49
I29
tp514
a(I49
I20
tp515
aa(lp516
(I40
I30
tp517
a(I40
I39
tp518
a(I49
I39
tp519
a(I49
I30
tp520
aa(lp521
(I40
I40
tp522
a(I40
I49
tp523
a(I49
I49
tp524
a(I49
I40
tp525
aa(lp526
(I40
I50
tp527
a(I40
I59
tp528
a(I49
I59
tp529
a(I49
I50
tp530
aa(lp531
(I40
I60
tp532
a(I40
I69
tp533
a(I49
I69
tp534
a(I49
I60
tp535
aa(lp536
(I40
I70
tp537
a(I40
I79
tp538
a(I49
I79
tp539
a(I49
I70
tp540
aa(lp541
(I40
I80
tp542
a(I40
I89
tp543
a(I49
I89
tp544
a(I49
I80
tp545
aa(lp546
(I40
I90
tp547
a(I40
I99
tp548
a(I49
I99
tp549
a(I49
I90
tp550
aa(lp551
(I40
I100
tp552
a(I40
I109
tp553
a(I49
I109
tp554
a(I49
I100
tp555
aa(lp556
(I40
I110
tp557
a(I40
I119
tp558
a(I49
I119
tp559
a(I49
I110
tp560
aa(lp561
(I40
I120
tp562
a(I40
I129
tp563
a(I49
I129
tp564
a(I49
I120
tp565
aa(lp566
(I40
I130
tp567
a(I40
I139
tp568
a(I49
I139
tp569
a(I49
I130
tp570
aa(lp571
(I40
I140
tp572
a(I40
I149
tp573
a(I49
I149
tp574
a(I49
I140
tp575
aa(lp576
(I40
I150
tp577
a(I40
I159
tp578
a(I49
I159
tp579
a(I49
I150
tp580
aa(lp581
(I40
I160
tp582
a(I40
I169
tp583
a(I49
I169
tp584
a(I49
I160
tp585
aa(lp586
(I40
I170
tp587
a(I40
I179
tp588
a(I49
I179
tp589
a(I49
I170
tp590
aa(lp591
(I40
I180
tp592
a(I40
I189
tp593
a(I49
I189
tp594
a(I49
I180
tp595
aa(lp596
(I40
I190
tp597
a(I40
I199
tp598
a(I49
I199
tp599
a(I49
I190
tp600
aa(lp601
(I40
I200
tp602
a(I40
I209
tp603
a(I49
I209
tp604
a(I49
I200
tp605
aa(lp606
(I40
I210
tp607
a(I40
I219
tp608
a(I49
I219
tp609
a(I49
I210
tp610
aa(lp611
(I40
I220
tp612
a(I40
I229
tp613
a(I49
I229
tp614
a(I49
I220
tp615
aa(lp616
(I40
I230
tp617
a(I40
I239
tp618
a(I49
I239
tp619
a(I49
I230
tp620
aa(lp621
(I40
I240
tp622
a(I40
I249
tp623
a(I49
I249
tp624
a(I49
I240
tp625
aa(lp626
(I50
I0
tp627
a(I50
I9
tp628
a(I59
I9
tp629
a(I59
I0
tp630
aa(lp631
(I50
I10
tp632
a(I50
I19
tp633
a(I59
I19
tp634
a(I59
I10
tp635
aa(lp636
(I50
I20
tp637
a(I50
I29
tp638
a(I59
I29
tp639
a(I59
I20
tp640
aa(lp641
(I50
I30
tp642
a(I50
I39
tp643
a(I59
I39
tp644
a(I59
I30
tp645
aa(lp646
(I50
I40
tp647
a(I50
I49
tp648
a(I59
I49
tp649
a(I59
I40
tp650
aa(lp651
(I50
I50
tp652
a(I50
I59
tp653
a(I59
I59
tp654
a(I59
I50
tp655
aa(lp656
(I50
I60
tp657
a(I50
I69
tp658
a(I59
I69
tp659
a(I59
I60
tp660
aa(lp661
(I50
I70
tp662
a(I50
I79
tp663
a(I59
I79
tp664
a(I59
I70
tp665
aa(lp666
(I50
I80
tp667
a(I50
I89
tp668
a(I59
I89
tp669
a(I59
I80
tp670
aa(lp671
(I50
I90
tp672
a(I50
I99
tp673
a(I59
I99
tp674
a(I59
I90
tp675
aa(lp676
(I50
I100
tp677
a(I50
I109
tp678
a(I59
I109
tp679
a(I59
I100
tp680
aa(lp681
(I50
I110
tp682
a(I50
I119
tp683
a(I59
I119
tp684
a(I59
I110
tp685
aa(lp686
(I50
I120
tp687
a(I50
I129
tp688
a(I59
I129
tp689
a(I59
I120
tp690
aa(lp691
(I50
I130
tp692
a(I50
I139
tp693
a(I59
I139
tp694
a(I59
I130
tp695
aa(lp696
(I50
I140
tp697
a(I50
I149
tp698
a(I59
I149
tp699
a(I59
I140
tp700
aa(lp701
(I50
I150
tp702
a(I50
I159
tp703
a(I59
I159
tp704
a(I59
I150
tp705
aa(lp706
(I50
I160
tp707
a(I50
I169
tp708
a(I59
I169
tp709
a(I59
I160
tp710
aa(lp711
(I50
I170
tp712
a(I50
I179
tp713
a(I59
I179
tp714
a(I59
I170
tp715
aa(lp716
(I50
I180
tp717
a(I50
I189
tp718
a(I59
I189
tp719
a(I59
I180
tp720
aa(lp721
(I50
I190
tp722
a(I50
I199
tp723
a(I59
I199
tp724
a(I59
I190
tp725
aa(lp726
(I50
I200
tp727
a(I50
I209
tp728
a(I59
I209
tp729
a(I59
I200
tp730
aa(lp731
(I50
I210
tp732
a(I50
I219
tp733
a(I59
I219
tp734
a(I59
I210
tp735
aa(lp736
(I50
I220
tp737
a(I50
I229
tp738
a(I59
I229
tp739
a(I59
I220
tp740
aa(lp741
(I50
I230
tp742
a(I50
I239
tp743
a(I59
I239
tp744
a(I59
I230
tp745
aa(lp746
(I50
I240
tp747
a(I50
I249
tp748
a(I59
I249
tp749
a(I59
I240
tp750
aa(lp751
(I60
I0
tp752
a(I60
I9
tp753
a(I69
I9
tp754
a(I69
I0
tp755
aa(lp756
(I60
I10
tp757
a(I60
I19
tp758
a(I69
I19
tp759
a(I69
I10
tp760
aa(lp761
(I60
I20
tp762
a(I60
I29
tp763
a(I69
I29
tp764
a(I69
I20
tp765
aa(lp766
(I60
I30
tp767
a(I60
I39
tp768
a(I69
I39
tp769
a(I69
I30
tp770
aa(lp771
(I60
I40
tp772
a(I60
I49
tp773
a(I69
I49
tp774
a(I69
I40
tp775
aa(lp776
(I60
I50
tp777
a(I60
I59
tp778
a(I69
I59
tp779
a(I69
I50
tp780
aa(lp781
(I60
I60
tp782
a(I60
I69
tp783
a(I69
I69
tp784
a(I69
I60
tp785
aa(lp786
(I60
I70
tp787
a(I60
I79
tp788
a(I69
I79
tp789
a(I69
I70
tp790
aa(lp791
(I60
I80
tp792
a(I60
I89
tp793
a(I69
I89
tp794
a(I69
I80
tp795
aa(lp796
(I60
I90
tp797
a(I60
I99
tp798
a(I69
I99
tp799
a(I69
I90
tp800
aa(lp801
(I60
I100
tp802
a(I60
I109
tp803
a(I69
I109
tp804
a(I69
I100
tp805
aa(lp806
(I60
I110
tp807
a(I60
I119
tp808
a(I69
I119
tp809
a(I69
I110
tp810
aa(lp811
(I60
I120
tp812
a(I60
I129
tp813
a(I69
I129
tp814
a(I69
I120
tp815
aa(lp816
(I60
I130
tp817
a(I60
I139
tp818
a(I69
I139
tp819
a(I69
I130
tp820
aa(lp821
(I60
I140
tp822
a(I60
I149
tp823
a(I69
I149
tp824
a(I69
I140
tp825
aa(lp826
(I60
I150
tp827
a(I60
I159
tp828
a(I69
I159
tp829
a(I69
I150
tp830
aa(lp831
(I60
I160
tp832
a(I60
I169
tp833
a(I69
I169
tp834
a(I69
I160
tp835
aa(lp836
(I60
I170
tp837
a(I60
I179
tp838
a(I69
I179
tp839
a(I69
I170
tp840
aa(lp841
(I60
I180
tp842
a(I60
I189
tp843
a(I69
I189
tp844
a(I69
I180
tp845
aa(lp846
(I60
I190
tp847
a(I60
I199
tp848
a(I69
I199
tp849
a(I69
I190
tp850
aa(lp851
(I60
I200
tp852
a(I60
I209
tp853
a(I69
I209
tp854
a(I69
I200
tp855
aa(lp856
(I60
I210
tp857
a(I60
I219
tp858
a(I69
I219
tp859
a(I69
I210
tp860
aa(lp861
(I60
I220
tp862
a(I60
I229
tp863
a(I69
I229
tp864
a(I69
I220
tp865
aa(lp866
(I60
I230
tp867
a(I60
I239
tp868
a(I69
I239
tp869
a(I69
I230
tp870
aa(lp871
(I60
I240
tp872
a(I60
I249
tp873
a(I69
I249
tp874
a(I69
I240
tp875
aa(lp876
(I70
I0
tp877
a(I70
I9
tp878
a(I79
I9
tp879
a(I79
I0
tp880
aa(lp881
(I70
I10
tp882
a(I70
I19
tp883
a(I79
I19
tp884
a(I79
I10
tp885
aa(lp886
(I70
I20
tp887
a(I70
I29
tp888
a(I79
I29
tp889
a(I79
I20
tp890
aa(lp891
(I70
I30
tp892
a(I70
I39
tp893
a(I79
I39
tp894
a(I79
I30
tp895
aa(lp896
(I70
I40
tp897
a(I70
I49
tp898
a(I79
I49
tp899
a(I79
I40
tp900
aa(lp901
(I70
I50
tp902
a(I70
I59
tp903
a(I79
I59
tp904
a(I79
I50
tp905
aa(lp906
(I70
I60
tp907
a(I70
I69
tp908
a(I79
I69
tp909
a(I79
I60
tp910
aa(lp911
(I70
I70
tp912
a(I70
I79
tp913
a(I79
I79
tp914
a(I79
I70
tp915
aa(lp916
(I70
I80
tp917
a(I70
I89
tp918
a(I79
I89
tp919
a(I79
I80
tp920
aa(lp921
(I70
I90
tp922
a(I70
I99
tp923
a(I79
I99
tp924
a(I79
I90
tp925
aa(lp926
(I70
I100
tp927
a(I70
I109
tp928
a(I79
I109
tp929
a(I79
I100
tp930
aa(lp931
(I70
I110
tp932
a(I70
I119
tp933
a(I79
I119
tp934
a(I79
I110
tp935
aa(lp936
(I70
I120
tp937
a(I70
I129
tp938
a(I79
I129
tp939
a(I79
I120
tp940
aa(lp941
(I70
I130
tp942
a(I70
I139
tp943
a(I79
I139
tp944
a(I79
I130
tp945
aa(lp946
(I70
I140
tp947
a(I70
I149
tp948
a(I79
I149
tp949
a(I79
I140
tp950
aa(lp951
(I70
I150
tp952
a(I70
I159
tp953
a(I79
I159
tp954
a(I79
I150
tp955
aa(lp956
(I70
I160
tp957
a(I70
I169
tp958
a(I79
I169
tp959
a(I79
I160
tp960
aa(lp961
(I70
I170
tp962
a(I70
I179
tp963
a(I79
I179
tp964
a(I79
I170
tp965
aa(lp966
(I70
I180
tp967
a(I70
I189
tp968
a(I79
I189
tp969
a(I79
I180
tp970
aa(lp971
(I70
I190
tp972
a(I70
I199
tp973
a(I79
I199
tp974
a(I79
I190
tp975
aa(lp976
(I70
I200
tp977
a(I70
I209
tp978
a(I79
I209
tp979
a(I79
I200
tp980
aa(lp981
(I70
I210
tp982
a(I70
I219
tp983
a(I79
I219
tp984
a(I79
I210
tp985
aa(lp986
(I70
I220
tp987
a(I70
I229
tp988
a(I79
I229
tp989
a(I79
I220
tp990
aa(lp991
(I70
I230
tp992
a(I70
I239
tp993
a(I79
I239
tp994
a(I79
I230
tp995
aa(lp996
(I70
I240
tp997
a(I70
I249
tp998
a(I79
I249
tp999
a(I79
I240
tp1000
aa(lp1001
(I80
I0
tp1002
a(I80
I9
tp1003
a(I89
I9
tp1004
a(I89
I0
tp1005
aa(lp1006
(I80
I10
tp1007
a(I80
I19
tp1008
a(I89
I19
tp1009
a(I89
I10
tp1010
aa(lp1011
(I80
I20
tp1012
a(I80
I29
tp1013
a(I89
I29
tp1014
a(I89
I20
tp1015
aa(lp1016
(I80
I30
tp1017
a(I80
I39
tp1018
a(I89
I39
tp1019
a(I89
I30
tp1020
aa(lp1021
(I80
I40
tp1022
a(I80
I49
tp1023
a(I89
I49
tp1024
a(I89
I40
tp1025
aa(lp1026
(I80
I50
tp1027
a(I80
I59
tp1028
a(I89
I59
tp1029
a(I89
I50
tp1030
aa(lp1031
(I80
I60
tp1032
a(I80
I69
tp1033
a(I89
I69
tp1034
a(I89
I60
tp1035
aa(lp1036
(I80
I70
tp1037
a(I80
I79
tp1038
a(I89
I79
tp1039
a(I89
I70
tp1040
aa(lp1041
(I80
I80
tp1042
a(I80
I89
tp1043
a(I89
I89
tp1044
a(I89
I80
tp1045
aa(lp1046
(I80
I90
tp1047
a(I80
I99
tp1048
a(I89
I99
tp1049
a(I89
I90
tp1050
aa(lp1051
(I80
I100
tp1052
a(I80
I109
tp1053
a(I89
I109
tp1054
a(I89
I100
tp1055
aa(lp1056
(I80
I110
tp1057
a(I80
I119
tp1058
a(I89
I119
tp1059
a(I89
I110
tp1060
aa(lp1061
(I80
I120
tp1062
a(I80
I129
tp1063
a(I89
I129
tp1064
a(I89
I120
tp1065
aa(lp1066
(I80
I130
tp1067
a(I80
I139
tp1068
a(I89
I139
tp1069
a(I89
I130
tp1070
aa(lp1071
(I80
I140
tp1072
a(I80
I149
tp1073
a(I89
I149
tp1074
a(I89
I140
tp1075
aa(lp1076
(I80
I150
tp1077
a(I80
I159
tp1078
a(I89
I159
tp1079
a(I89
I150
tp1080
aa(lp1081
(I80
I160
tp1082
a(I80
I169
tp1083
a(I89
I169
tp1084
a(I89
I160
tp1085
aa(lp1086
(I80
I170
tp1087
a(I80
I179
tp1088
a(I89
I179
tp1089
a(I89
I170
tp1090
aa(lp1091
(I80
I180
tp1092
a(I80
I189
tp1093
a(I89
I189
tp1094
a(I89
I180
tp1095
aa(lp1096
(I80
I190
tp1097
a(I80
I199
tp1098
a(I89
I199
tp1099
a(I89
I190
tp1100
aa(lp1101
(I80
I200
tp1102
a(I80
I209
tp1103
a(I89
I209
tp1104
a(I89
I200
tp1105
aa(lp1106
(I80
I210
tp1107
a(I80
I219
tp1108
a(I89
I219
tp1109
a(I89
I210
tp1110
aa(lp1111
(I80
I220
tp1112
a(I80
I229
tp1113
a(I89
I229
tp1114
a(I89
I220
tp1115
aa(lp1116
(I80
I230
tp1117
a(I80
I239
tp1118
a(I89
I239
tp1119
a(I89
I230
tp1120
aa(lp1121
(I80
I240
tp1122
a(I80
I249
tp1123
a(I89
I249
tp1124
a(I89
I240
tp1125
aa(lp1126
(I90
I0
tp1127
a(I90
I9
tp1128
a(I99
I9
tp1129
a(I99
I0
tp1130
aa(lp1131
(I90
I10
tp1132
a(I90
I19
tp1133
a(I99
I19
tp1134
a(I99
I10
tp1135
aa(lp1136
(I90
I20
tp1137
a(I90
I29
tp1138
a(I99
I29
tp1139
a(I99
I20
tp1140
aa(lp1141
(I90
I30
tp1142
a(I90
I39
tp1143
a(I99
I39
tp1144
a(I99
I30
tp1145
aa(lp1146
(I90
I40
tp1147
a(I90
I49
tp1148
a(I99
I49
tp1149
a(I99
I40
tp1150
aa(lp1151
(I90
I50
tp1152
a(I90
I59
tp1153
a(I99
I59
tp1154
a(I99
I50
tp1155
aa(lp1156
(I90
I60
tp1157
a(I90
I69
tp1158
a(I99
I69
tp1159
a(I99
I60
tp1160
aa(lp1161
(I90
I70
tp1162
a(I90
I79
tp1163
a(I99
I79
tp1164
a(I99
I70
tp1165
aa(lp1166
(I90
I80
tp1167
a(I90
I89
tp1168
a(I99
I89
tp1169
a(I99
I80
tp1170
aa(lp1171
(I90
I90
tp1172
a(I90
I99
tp1173
a(I99
I99
tp1174
a(I99
I90
tp1175
aa(lp1176
(I90
I100
tp1177
a(I90
I109
tp1178
a(I99
I109
tp1179
a(I99
I100
tp1180
aa(lp1181
(I90
I110
tp1182
a(I90
I119
tp1183
a(I99
I119
tp1184
a(I99
I110
tp1185
aa(lp1186
(I90
I120
tp1187
a(I90
I129
tp1188
a(I99
I129
tp1189
a(I99
I120
tp1190
aa(lp1191
(I90
I130
tp1192
a(I90
I139
tp1193
a(I99
I139
tp1194
a(I99
I130
tp1195
aa(lp1196
(I90
I140
tp1197
a(I90
I149
tp1198
a(I99
I149
tp1199
a(I99
I140
tp1200
aa(lp1201
(I90
I150
tp1202
a(I90
I159
tp1203
a(I99
I159
tp1204
a(I99
I150
tp1205
aa(lp1206
(I90
I160
tp1207
a(I90
I169
tp1208
a(I99
I169
tp1209
a(I99
I160
tp1210
aa(lp1211
(I90
I170
tp1212
a(I90
I179
tp1213
a(I99
I179
tp1214
a(I99
I170
tp1215
aa(lp1216
(I90
I180
tp1217
a(I90
I189
tp1218
a(I99
I189
tp1219
a(I99
I180
tp1220
aa(lp1221
(I90
I190
tp1222
a(I90
I199
tp1223
a(I99
I199
tp1224
a(I99
I190
tp1225
aa(lp1226
(I90
I200
tp1227
a(I90
I209
tp1228
a(I99
I209
tp1229
a(I99
I200
tp1230
aa(lp1231
(I90
I210
tp1232
a(I90
I219
tp1233
a(I99
I219
tp1234
a(I99
I210
tp1235
aa(lp1236
(I90
I220
tp1237
a(I90
I229
tp1238
a(I99
I229
tp1239
a(I99
I220
tp1240
aa(lp1241
(I90
I230
tp1242
a(I90
I239
tp1243
a(I99
I239
tp1244
a(I99
I230
tp1245
aa(lp1246
(I90
I240
tp1247
a(I90
I249
tp1248
a(I99
I249
tp1249
a(I99
I240
tp1250
aa(lp1251
(I100
I0
tp1252
a(I100
I9
tp1253
a(I109
I9
tp1254
a(I109
I0
tp1255
aa(lp1256
(I100
I10
tp1257
a(I100
I19
tp1258
a(I109
I19
tp1259
a(I109
I10
tp1260
aa(lp1261
(I100
I20
tp1262
a(I100
I29
tp1263
a(I109
I29
tp1264
a(I109
I20
tp1265
aa(lp1266
(I100
I30
tp1267
a(I100
I39
tp1268
a(I109
I39
tp1269
a(I109
I30
tp1270
aa(lp1271
(I100
I40
tp1272
a(I100
I49
tp1273
a(I109
I49
tp1274
a(I109
I40
tp1275
aa(lp1276
(I100
I50
tp1277
a(I100
I59
tp1278
a(I109
I59
tp1279
a(I109
I50
tp1280
aa(lp1281
(I100
I60
tp1282
a(I100
I69
tp1283
a(I109
I69
tp1284
a(I109
I60
tp1285
aa(lp1286
(I100
I70
tp1287
a(I100
I79
tp1288
a(I109
I79
tp1289
a(I109
I70
tp1290
aa(lp1291
(I100
I80
tp1292
a(I100
I89
tp1293
a(I109
I89
tp1294
a(I109
I80
tp1295
aa(lp1296
(I100
I90
tp1297
a(I100
I99
tp1298
a(I109
I99
tp1299
a(I109
I90
tp1300
aa(lp1301
(I100
I100
tp1302
a(I100
I109
tp1303
a(I109
I109
tp1304
a(I109
I100
tp1305
aa(lp1306
(I100
I110
tp1307
a(I100
I119
tp1308
a(I109
I119
tp1309
a(I109
I110
tp1310
aa(lp1311
(I100
I120
tp1312
a(I100
I129
tp1313
a(I109
I129
tp1314
a(I109
I120
tp1315
aa(lp1316
(I100
I130
tp1317
a(I100
I139
tp1318
a(I109
I139
tp1319
a(I109
I130
tp1320
aa(lp1321
(I100
I140
tp1322
a(I100
I149
tp1323
a(I109
I149
tp1324
a(I109
I140
tp1325
aa(lp1326
(I100
I150
tp1327
a(I100
I159
tp1328
a(I109
I159
tp1329
a(I109
I150
tp1330
aa(lp1331
(I100
I160
tp1332
a(I100
I169
tp1333
a(I109
I169
tp1334
a(I109
I160
tp1335
aa(lp1336
(I100
I170
tp1337
a(I100
I179
tp1338
a(I109
I179
tp1339
a(I109
I170
tp1340
aa(lp1341
(I100
I180
tp1342
a(I100
I189
tp1343
a(I109
I189
tp1344
a(I109
I180
tp1345
aa(lp1346
(I100
I190
tp1347
a(I100
I199
tp1348
a(I109
I199
tp1349
a(I109
I190
tp1350
aa(lp1351
(I100
I200
tp1352
a(I100
I209
tp1353
a(I109
I209
tp1354
a(I109
I200
tp1355
aa(lp1356
(I100
I210
tp1357
a(I100
I219
tp1358
a(I109
I219
tp1359
a(I109
I210
tp1360
aa(lp1361
(I100
I220
tp1362
a(I100
I229
tp1363
a(I109
I229
tp1364
a(I109
I220
tp1365
aa(lp1366
(I100
I230
tp1367
a(I100
I239
tp1368
a(I109
I239
tp1369
a(I109
I230
tp1370
aa(lp1371
(I100
I240
tp1372
a(I100
I249
tp1373
a(I109
I249
tp1374
a(I109
I240
tp1375
aa(lp1376
(I110
I0
tp1377
a(I110
I9
tp1378
a(I119
I9
tp1379
a(I119
I0
tp1380
aa(lp1381
(I110
I10
tp1382
a(I110
I19
tp1383
a(I119
I19
tp1384
a(I119
I10
tp1385
aa(lp1386
(I110
I20
tp1387
a(I110
I29
tp1388
a(I119
I29
tp1389
a(I119
I20
tp1390
aa(lp1391
(I110
I30
tp1392
a(I110
I39
tp1393
a(I119
I39
tp1394
a(I119
I30
tp1395
aa(lp1396
(I110
I40
tp1397
a(I110
I49
tp1398
a(I119
I49
tp1399
a(I119
I40
tp1400
aa(lp1401
(I110
I50
tp1402
a(I110
I59
tp1403
a(I119
I59
tp1404
a(I119
I50
tp1405
aa(lp1406
(I110
I60
tp1407
a(I110
I69
tp1408
a(I119
I69
tp1409
a(I119
I60
tp1410
aa(lp1411
(I110
I70
tp1412
a(I110
I79
tp1413
a(I119
I79
tp1414
a(I119
I70
tp1415
aa(lp1416
(I110
I80
tp1417
a(I110
I89
tp1418
a(I119
I89
tp1419
a(I119
I80
tp1420
aa(lp1421
(I110
I90
tp1422
a(I110
I99
tp1423
a(I119
I99
tp1424
a(I119
I90
tp1425
aa(lp1426
(I110
I100
tp1427
a(I110
I109
tp1428
a(I119
I109
tp1429
a(I119
I100
tp1430
aa(lp1431
(I110
I110
tp1432
a(I110
I119
tp1433
a(I119
I119
tp1434
a(I119
I110
tp1435
aa(lp1436
(I110
I120
tp1437
a(I110
I129
tp1438
a(I119
I129
tp1439
a(I119
I120
tp1440
aa(lp1441
(I110
I130
tp1442
a(I110
I139
tp1443
a(I119
I139
tp1444
a(I119
I130
tp1445
aa(lp1446
(I110
I140
tp1447
a(I110
I149
tp1448
a(I119
I149
tp1449
a(I119
I140
tp1450
aa(lp1451
(I110
I150
tp1452
a(I110
I159
tp1453
a(I119
I159
tp1454
a(I119
I150
tp1455
aa(lp1456
(I110
I160
tp1457
a(I110
I169
tp1458
a(I119
I169
tp1459
a(I119
I160
tp1460
aa(lp1461
(I110
I170
tp1462
a(I110
I179
tp1463
a(I119
I179
tp1464
a(I119
I170
tp1465
aa(lp1466
(I110
I180
tp1467
a(I110
I189
tp1468
a(I119
I189
tp1469
a(I119
I180
tp1470
aa(lp1471
(I110
I190
tp1472
a(I110
I199
tp1473
a(I119
I199
tp1474
a(I119
I190
tp1475
aa(lp1476
(I110
I200
tp1477
a(I110
I209
tp1478
a(I119
I209
tp1479
a(I119
I200
tp1480
aa(lp1481
(I110
I210
tp1482
a(I110
I219
tp1483
a(I119
I219
tp1484
a(I119
I210
tp1485
aa(lp1486
(I110
I220
tp1487
a(I110
I229
tp1488
a(I119
I229
tp1489
a(I119
I220
tp1490
aa(lp1491
(I110
I230
tp1492
a(I110
I239
tp1493
a(I119
I239
tp1494
a(I119
I230
tp1495
aa(lp1496
(I110
I240
tp1497
a(I110
I249
tp1498
a(I119
I249
tp1499
a(I119
I240
tp1500
aa(lp1501
(I120
I0
tp1502
a(I120
I9
tp1503
a(I129
I9
tp1504
a(I129
I0
tp1505
aa(lp1506
(I120
I10
tp1507
a(I120
I19
tp1508
a(I129
I19
tp1509
a(I129
I10
tp1510
aa(lp1511
(I120
I20
tp1512
a(I120
I29
tp1513
a(I129
I29
tp1514
a(I129
I20
tp1515
aa(lp1516
(I120
I30
tp1517
a(I120
I39
tp1518
a(I129
I39
tp1519
a(I129
I30
tp1520
aa(lp1521
(I120
I40
tp1522
a(I120
I49
tp1523
a(I129
I49
tp1524
a(I129
I40
tp1525
aa(lp1526
(I120
I50
tp1527
a(I120
I59
tp1528
a(I129
I59
tp1529
a(I129
I50
tp1530
aa(lp1531
(I120
I60
tp1532
a(I120
I69
tp1533
a(I129
I69
tp1534
a(I129
I60
tp1535
aa(lp1536
(I120
I70
tp1537
a(I120
I79
tp1538
a(I129
I79
tp1539
a(I129
I70
tp1540
aa(lp1541
(I120
I80
tp1542
a(I120
I89
tp1543
a(I129
I89
tp1544
a(I129
I80
tp1545
aa(lp1546
(I120
I90
tp1547
a(I120
I99
tp1548
a(I129
I99
tp1549
a(I129
I90
tp1550
aa(lp1551
(I120
I100
tp1552
a(I120
I109
tp1553
a(I129
I109
tp1554
a(I129
I100
tp1555
aa(lp1556
(I120
I110
tp1557
a(I120
I119
tp1558
a(I129
I119
tp1559
a(I129
I110
tp1560
aa(lp1561
(I120
I120
tp1562
a(I120
I129
tp1563
a(I129
I129
tp1564
a(I129
I120
tp1565
aa(lp1566
(I120
I130
tp1567
a(I120
I139
tp1568
a(I129
I139
tp1569
a(I129
I130
tp1570
aa(lp1571
(I120
I140
tp1572
a(I120
I149
tp1573
a(I129
I149
tp1574
a(I129
I140
tp1575
aa(lp1576
(I120
I150
tp1577
a(I120
I159
tp1578
a(I129
I159
tp1579
a(I129
I150
tp1580
aa(lp1581
(I120
I160
tp1582
a(I120
I169
tp1583
a(I129
I169
tp1584
a(I129
I160
tp1585
aa(lp1586
(I120
I170
tp1587
a(I120
I179
tp1588
a(I129
I179
tp1589
a(I129
I170
tp1590
aa(lp1591
(I120
I180
tp1592
a(I120
I189
tp1593
a(I129
I189
tp1594
a(I129
I180
tp1595
aa(lp1596
(I120
I190
tp1597
a(I120
I199
tp1598
a(I129
I199
tp1599
a(I129
I190
tp1600
aa(lp1601
(I120
I200
tp1602
a(I120
I209
tp1603
a(I129
I209
tp1604
a(I129
I200
tp1605
aa(lp1606
(I120
I210
tp1607
a(I120
I219
tp1608
a(I129
I219
tp1609
a(I129
I210
tp1610
aa(lp1611
(I120
I220
tp1612
a(I120
I229
tp1613
a(I129
I229
tp1614
a(I129
I220
tp1615
aa(lp1616
(I120
I230
tp1617
a(I120
I239
tp1618
a(I129
I239
tp1619
a(I129
I230
tp1620
aa(lp1621
(I120
I240
tp1622
a(I120
I249
tp1623
a(I129
I249
tp1624
a(I129
I240
tp1625
aa(lp1626
(I130
I0
tp1627
a(I130
I9
tp1628
a(I139
I9
tp1629
a(I139
I0
tp1630
aa(lp1631
(I130
I10
tp1632
a(I130
I19
tp1633
a(I139
I19
tp1634
a(I139
I10
tp1635
aa(lp1636
(I130
I20
tp1637
a(I130
I29
tp1638
a(I139
I29
tp1639
a(I139
I20
tp1640
aa(lp1641
(I130
I30
tp1642
a(I130
I39
tp1643
a(I139
I39
tp1644
a(I139
I30
tp1645
aa(lp1646
(I130
I40
tp1647
a(I130
I49
tp1648
a(I139
I49
tp1649
a(I139
I40
tp1650
aa(lp1651
(I130
I50
tp1652
a(I130
I59
tp1653
a(I139
I59
tp1654
a(I139
I50
tp1655
aa(lp1656
(I130
I60
tp1657
a(I130
I69
tp1658
a(I139
I69
tp1659
a(I139
I60
tp1660
aa(lp1661
(I130
I70
tp1662
a(I130
I79
tp1663
a(I139
I79
tp1664
a(I139
I70
tp1665
aa(lp1666
(I130
I80
tp1667
a(I130
I89
tp1668
a(I139
I89
tp1669
a(I139
I80
tp1670
aa(lp1671
(I130
I90
tp1672
a(I130
I99
tp1673
a(I139
I99
tp1674
a(I139
I90
tp1675
aa(lp1676
(I130
I100
tp1677
a(I130
I109
tp1678
a(I139
I109
tp1679
a(I139
I100
tp1680
aa(lp1681
(I130
I110
tp1682
a(I130
I119
tp1683
a(I139
I119
tp1684
a(I139
I110
tp1685
aa(lp1686
(I130
I120
tp1687
a(I130
I129
tp1688
a(I139
I129
tp1689
a(I139
I120
tp1690
aa(lp1691
(I130
I130
tp1692
a(I130
I139
tp1693
a(I139
I139
tp1694
a(I139
I130
tp1695
aa(lp1696
(I130
I140
tp1697
a(I130
I149
tp1698
a(I139
I149
tp1699
a(I139
I140
tp1700
aa(lp1701
(I130
I150
tp1702
a(I130
I159
tp1703
a(I139
I159
tp1704
a(I139
I150
tp1705
aa(lp1706
(I130
I160
tp1707
a(I130
I169
tp1708
a(I139
I169
tp1709
a(I139
I160
tp1710
aa(lp1711
(I130
I170
tp1712
a(I130
I179
tp1713
a(I139
I179
tp1714
a(I139
I170
tp1715
aa(lp1716
(I130
I180
tp1717
a(I130
I189
tp1718
a(I139
I189
tp1719
a(I139
I180
tp1720
aa(lp1721
(I130
I190
tp1722
a(I130
I199
tp1723
a(I139
I199
tp1724
a(I139
I190
tp1725
aa(lp1726
(I130
I200
tp1727
a(I130
I209
tp1728
a(I139
I209
tp1729
a(I139
I200
tp1730
aa(lp1731
(I130
I210
tp1732
a(I130
I219
tp1733
a(I139
I219
tp1734
a(I139
I210
tp1735
aa(lp1736
(I130
I220
tp1737
a(I130
I229
tp1738
a(I139
I229
tp1739
a(I139
I220
tp1740
aa(lp1741
(I130
I230
tp1742
a(I130
I239
tp1743
a(I139
I239
tp1744
a(I139
I230
tp1745
aa(lp1746
(I130
I240
tp1747
a(I130
I249
tp1748
a(I139
I249
tp1749
a(I139
I240
tp1750
aa(lp1751
(I140
I0
tp1752
a(I140
I9
tp1753
a(I149
I9
tp1754
a(I149
I0
tp1755
aa(lp1756
(I140
I10
tp1757
a(I140
I19
tp1758
a(I149
I19
tp1759
a(I149
I10
tp1760
aa(lp1761
(I140
I20
tp1762
a(I140
I29
tp1763
a(I149
I29
tp1764
a(I149
I20
tp1765
aa(lp1766
(I140
I30
tp1767
a(I140
I39
tp1768
a(I149
I39
tp1769
a(I149
I30
tp1770
aa(lp1771
(I140
I40
tp1772
a(I140
I49
tp1773
a(I149
I49
tp1774
a(I149
I40
tp1775
aa(lp1776
(I140
I50
tp1777
a(I140
I59
tp1778
a(I149
I59
tp1779
a(I149
I50
tp1780
aa(lp1781
(I140
I60
tp1782
a(I140
I69
tp1783
a(I149
I69
tp1784
a(I149
I60
tp1785
aa(lp1786
(I140
I70
tp1787
a(I140
I79
tp1788
a(I149
I79
tp1789
a(I149
I70
tp1790
aa(lp1791
(I140
I80
tp1792
a(I140
I89
tp1793
a(I149
I89
tp1794
a(I149
I80
tp1795
aa(lp1796
(I140
I90
tp1797
a(I140
I99
tp1798
a(I149
I99
tp1799
a(I149
I90
tp1800
aa(lp1801
(I140
I100
tp1802
a(I140
I109
tp1803
a(I149
I109
tp1804
a(I149
I100
tp1805
aa(lp1806
(I140
I110
tp1807
a(I140
I119
tp1808
a(I149
I119
tp1809
a(I149
I110
tp1810
aa(lp1811
(I140
I120
tp1812
a(I140
I129
tp1813
a(I149
I129
tp1814
a(I149
I120
tp1815
aa(lp1816
(I140
I130
tp1817
a(I140
I139
tp1818
a(I149
I139
tp1819
a(I149
I130
tp1820
aa(lp1821
(I140
I140
tp1822
a(I140
I149
tp1823
a(I149
I149
tp1824
a(I149
I140
tp1825
aa(lp1826
(I140
I150
tp1827
a(I140
I159
tp1828
a(I149
I159
tp1829
a(I149
I150
tp1830
aa(lp1831
(I140
I160
tp1832
a(I140
I169
tp1833
a(I149
I169
tp1834
a(I149
I160
tp1835
aa(lp1836
(I140
I170
tp1837
a(I140
I179
tp1838
a(I149
I179
tp1839
a(I149
I170
tp1840
aa(lp1841
(I140
I180
tp1842
a(I140
I189
tp1843
a(I149
I189
tp1844
a(I149
I180
tp1845
aa(lp1846
(I140
I190
tp1847
a(I140
I199
tp1848
a(I149
I199
tp1849
a(I149
I190
tp1850
aa(lp1851
(I140
I200
tp1852
a(I140
I209
tp1853
a(I149
I209
tp1854
a(I149
I200
tp1855
aa(lp1856
(I140
I210
tp1857
a(I140
I219
tp1858
a(I149
I219
tp1859
a(I149
I210
tp1860
aa(lp1861
(I140
I220
tp1862
a(I140
I229
tp1863
a(I149
I229
tp1864
a(I149
I220
tp1865
aa(lp1866
(I140
I230
tp1867
a(I140
I239
tp1868
a(I149
I239
tp1869
a(I149
I230
tp1870
aa(lp1871
(I140
I240
tp1872
a(I140
I249
tp1873
a(I149
I249
tp1874
a(I149
I240
tp1875
aa(lp1876
(I150
I0
tp1877
a(I150
I9
tp1878
a(I159
I9
tp1879
a(I159
I0
tp1880
aa(lp1881
(I150
I10
tp1882
a(I150
I19
tp1883
a(I159
I19
tp1884
a(I159
I10
tp1885
aa(lp1886
(I150
I20
tp1887
a(I150
I29
tp1888
a(I159
I29
tp1889
a(I159
I20
tp1890
aa(lp1891
(I150
I30
tp1892
a(I150
I39
tp1893
a(I159
I39
tp1894
a(I159
I30
tp1895
aa(lp1896
(I150
I40
tp1897
a(I150
I49
tp1898
a(I159
I49
tp1899
a(I159
I40
tp1900
aa(lp1901
(I150
I50
tp1902
a(I150
I59
tp1903
a(I159
I59
tp1904
a(I159
I50
tp1905
aa(lp1906
(I150
I60
tp1907
a(I150
I69
tp1908
a(I159
I69
tp1909
a(I159
I60
tp1910
aa(lp1911
(I150
I70
tp1912
a(I150
I79
tp1913
a(I159
I79
tp1914
a(I159
I70
tp1915
aa(lp1916
(I150
I80
tp1917
a(I150
I89
tp1918
a(I159
I89
tp1919
a(I159
I80
tp1920
aa(lp1921
(I150
I90
tp1922
a(I150
I99
tp1923
a(I159
I99
tp1924
a(I159
I90
tp1925
aa(lp1926
(I150
I100
tp1927
a(I150
I109
tp1928
a(I159
I109
tp1929
a(I159
I100
tp1930
aa(lp1931
(I150
I110
tp1932
a(I150
I119
tp1933
a(I159
I119
tp1934
a(I159
I110
tp1935
aa(lp1936
(I150
I120
tp1937
a(I150
I129
tp1938
a(I159
I129
tp1939
a(I159
I120
tp1940
aa(lp1941
(I150
I130
tp1942
a(I150
I139
tp1943
a(I159
I139
tp1944
a(I159
I130
tp1945
aa(lp1946
(I150
I140
tp1947
a(I150
I149
tp1948
a(I159
I149
tp1949
a(I159
I140
tp1950
aa(lp1951
(I150
I150
tp1952
a(I150
I159
tp1953
a(I159
I159
tp1954
a(I159
I150
tp1955
aa(lp1956
(I150
I160
tp1957
a(I150
I169
tp1958
a(I159
I169
tp1959
a(I159
I160
tp1960
aa(lp1961
(I150
I170
tp1962
a(I150
I179
tp1963
a(I159
I179
tp1964
a(I159
I170
tp1965
aa(lp1966
(I150
I180
tp1967
a(I150
I189
tp1968
a(I159
I189
tp1969
a(I159
I180
tp1970
aa(lp1971
(I150
I190
tp1972
a(I150
I199
tp1973
a(I159
I199
tp1974
a(I159
I190
tp1975
aa(lp1976
(I150
I200
tp1977
a(I150
I209
tp1978
a(I159
I209
tp1979
a(I159
I200
tp1980
aa(lp1981
(I150
I210
tp1982
a(I150
I219
tp1983
a(I159
I219
tp1984
a(I159
I210
tp1985
aa(lp1986
(I150
I220
tp1987
a(I150
I229
tp1988
a(I159
I229
tp1989
a(I159
I220
tp1990
aa(lp1991
(I150
I230
tp1992
a(I150
I239
tp1993
a(I159
I239
tp1994
a(I159
I230
tp1995
aa(lp1996
(I150
I240
tp1997
a(I150
I249
tp1998
a(I159
I249
tp1999
a(I159
I240
tp2000
aa(lp2001
(I160
I0
tp2002
a(I160
I9
tp2003
a(I169
I9
tp2004
a(I169
I0
tp2005
aa(lp2006
(I160
I10
tp2007
a(I160
I19
tp2008
a(I169
I19
tp2009
a(I169
I10
tp2010
aa(lp2011
(I160
I20
tp2012
a(I160
I29
tp2013
a(I169
I29
tp2014
a(I169
I20
tp2015
aa(lp2016
(I160
I30
tp2017
a(I160
I39
tp2018
a(I169
I39
tp2019
a(I169
I30
tp2020
aa(lp2021
(I160
I40
tp2022
a(I160
I49
tp2023
a(I169
I49
tp2024
a(I169
I40
tp2025
aa(lp2026
(I160
I50
tp2027
a(I160
I59
tp2028
a(I169
I59
tp2029
a(I169
I50
tp2030
aa(lp2031
(I160
I60
tp2032
a(I160
I69
tp2033
a(I169
I69
tp2034
a(I169
I60
tp2035
aa(lp2036
(I160
I70
tp2037
a(I160
I79
tp2038
a(I169
I79
tp2039
a(I169
I70
tp2040
aa(lp2041
(I160
I80
tp2042
a(I160
I89
tp2043
a(I169
I89
tp2044
a(I169
I80
tp2045
aa(lp2046
(I160
I90
tp2047
a(I160
I99
tp2048
a(I169
I99
tp2049
a(I169
I90
tp2050
aa(lp2051
(I160
I100
tp2052
a(I160
I109
tp2053
a(I169
I109
tp2054
a(I169
I100
tp2055
aa(lp2056
(I160
I110
tp2057
a(I160
I119
tp2058
a(I169
I119
tp2059
a(I169
I110
tp2060
aa(lp2061
(I160
I120
tp2062
a(I160
I129
tp2063
a(I169
I129
tp2064
a(I169
I120
tp2065
aa(lp2066
(I160
I130
tp2067
a(I160
I139
tp2068
a(I169
I139
tp2069
a(I169
I130
tp2070
aa(lp2071
(I160
I140
tp2072
a(I160
I149
tp2073
a(I169
I149
tp2074
a(I169
I140
tp2075
aa(lp2076
(I160
I150
tp2077
a(I160
I159
tp2078
a(I169
I159
tp2079
a(I169
I150
tp2080
aa(lp2081
(I160
I160
tp2082
a(I160
I169
tp2083
a(I169
I169
tp2084
a(I169
I160
tp2085
aa(lp2086
(I160
I170
tp2087
a(I160
I179
tp2088
a(I169
I179
tp2089
a(I169
I170
tp2090
aa(lp2091
(I160
I180
tp2092
a(I160
I189
tp2093
a(I169
I189
tp2094
a(I169
I180
tp2095
aa(lp2096
(I160
I190
tp2097
a(I160
I199
tp2098
a(I169
I199
tp2099
a(I169
I190
tp2100
aa(lp2101
(I160
I200
tp2102
a(I160
I209
tp2103
a(I169
I209
tp2104
a(I169
I200
tp2105
aa(lp2106
(I160
I210
tp2107
a(I160
I219
tp2108
a(I169
I219
tp2109
a(I169
I210
tp2110
aa(lp2111
(I160
I220
tp2112
a(I160
I229
tp2113
a(I169
I229
tp2114
a(I169
I220
tp2115
aa(lp2116
(I160
I230
tp2117
a(I160
I239
tp2118
a(I169
I239
tp2119
a(I169
I230
tp2120
aa(lp2121
(I160
I240
tp2122
a(I160
I249
tp2123
a(I169
I249
tp2124
a(I169
I240
tp2125
aa(lp2126
(I170
I0
tp2127
a(I170
I9
tp2128
a(I179
I9
tp2129
a(I179
I0
tp2130
aa(lp2131
(I170
I10
tp2132
a(I170
I19
tp2133
a(I179
I19
tp2134
a(I179
I10
tp2135
aa(lp2136
(I170
I20
tp2137
a(I170
I29
tp2138
a(I179
I29
tp2139
a(I179
I20
tp2140
aa(lp2141
(I170
I30
tp2142
a(I170
I39
tp2143
a(I179
I39
tp2144
a(I179
I30
tp2145
aa(lp2146
(I170
I40
tp2147
a(I170
I49
tp2148
a(I179
I49
tp2149
a(I179
I40
tp2150
aa(lp2151
(I170
I50
tp2152
a(I170
I59
tp2153
a(I179
I59
tp2154
a(I179
I50
tp2155
aa(lp2156
(I170
I60
tp2157
a(I170
I69
tp2158
a(I179
I69
tp2159
a(I179
I60
tp2160
aa(lp2161
(I170
I70
tp2162
a(I170
I79
tp2163
a(I179
I79
tp2164
a(I179
I70
tp2165
aa(lp2166
(I170
I80
tp2167
a(I170
I89
tp2168
a(I179
I89
tp2169
a(I179
I80
tp2170
aa(lp2171
(I170
I90
tp2172
a(I170
I99
tp2173
a(I179
I99
tp2174
a(I179
I90
tp2175
aa(lp2176
(I170
I100
tp2177
a(I170
I109
tp2178
a(I179
I109
tp2179
a(I179
I100
tp2180
aa(lp2181
(I170
I110
tp2182
a(I170
I119
tp2183
a(I179
I119
tp2184
a(I179
I110
tp2185
aa(lp2186
(I170
I120
tp2187
a(I170
I129
tp2188
a(I179
I129
tp2189
a(I179
I120
tp2190
aa(lp2191
(I170
I130
tp2192
a(I170
I139
tp2193
a(I179
I139
tp2194
a(I179
I130
tp2195
aa(lp2196
(I170
I140
tp2197
a(I170
I149
tp2198
a(I179
I149
tp2199
a(I179
I140
tp2200
aa(lp2201
(I170
I150
tp2202
a(I170
I159
tp2203
a(I179
I159
tp2204
a(I179
I150
tp2205
aa(lp2206
(I170
I160
tp2207
a(I170
I169
tp2208
a(I179
I169
tp2209
a(I179
I160
tp2210
aa(lp2211
(I170
I170
tp2212
a(I170
I179
tp2213
a(I179
I179
tp2214
a(I179
I170
tp2215
aa(lp2216
(I170
I180
tp2217
a(I170
I189
tp2218
a(I179
I189
tp2219
a(I179
I180
tp2220
aa(lp2221
(I170
I190
tp2222
a(I170
I199
tp2223
a(I179
I199
tp2224
a(I179
I190
tp2225
aa(lp2226
(I170
I200
tp2227
a(I170
I209
tp2228
a(I179
I209
tp2229
a(I179
I200
tp2230
aa(lp2231
(I170
I210
tp2232
a(I170
I219
tp2233
a(I179
I219
tp2234
a(I179
I210
tp2235
aa(lp2236
(I170
I220
tp2237
a(I170
I229
tp2238
a(I179
I229
tp2239
a(I179
I220
tp2240
aa(lp2241
(I170
I230
tp2242
a(I170
I239
tp2243
a(I179
I239
tp2244
a(I179
I230
tp2245
aa(lp2246
(I170
I240
tp2247
a(I170
I249
tp2248
a(I179
I249
tp2249
a(I179
I240
tp2250
aa(lp2251
(I180
I0
tp2252
a(I180
I9
tp2253
a(I189
I9
tp2254
a(I189
I0
tp2255
aa(lp2256
(I180
I10
tp2257
a(I180
I19
tp2258
a(I189
I19
tp2259
a(I189
I10
tp2260
aa(lp2261
(I180
I20
tp2262
a(I180
I29
tp2263
a(I189
I29
tp2264
a(I189
I20
tp2265
aa(lp2266
(I180
I30
tp2267
a(I180
I39
tp2268
a(I189
I39
tp2269
a(I189
I30
tp2270
aa(lp2271
(I180
I40
tp2272
a(I180
I49
tp2273
a(I189
I49
tp2274
a(I189
I40
tp2275
aa(lp2276
(I180
I50
tp2277
a(I180
I59
tp2278
a(I189
I59
tp2279
a(I189
I50
tp2280
aa(lp2281
(I180
I60
tp2282
a(I180
I69
tp2283
a(I189
I69
tp2284
a(I189
I60
tp2285
aa(lp2286
(I180
I70
tp2287
a(I180
I79
tp2288
a(I189
I79
tp2289
a(I189
I70
tp2290
aa(lp2291
(I180
I80
tp2292
a(I180
I89
tp2293
a(I189
I89
tp2294
a(I189
I80
tp2295
aa(lp2296
(I180
I90
tp2297
a(I180
I99
tp2298
a(I189
I99
tp2299
a(I189
I90
tp2300
aa(lp2301
(I180
I100
tp2302
a(I180
I109
tp2303
a(I189
I109
tp2304
a(I189
I100
tp2305
aa(lp2306
(I180
I110
tp2307
a(I180
I119
tp2308
a(I189
I119
tp2309
a(I189
I110
tp2310
aa(lp2311
(I180
I120
tp2312
a(I180
I129
tp2313
a(I189
I129
tp2314
a(I189
I120
tp2315
aa(lp2316
(I180
I130
tp2317
a(I180
I139
tp2318
a(I189
I139
tp2319
a(I189
I130
tp2320
aa(lp2321
(I180
I140
tp2322
a(I180
I149
tp2323
a(I189
I149
tp2324
a(I189
I140
tp2325
aa(lp2326
(I180
I150
tp2327
a(I180
I159
tp2328
a(I189
I159
tp2329
a(I189
I150
tp2330
aa(lp2331
(I180
I160
tp2332
a(I180
I169
tp2333
a(I189
I169
tp2334
a(I189
I160
tp2335
aa(lp2336
(I180
I170
tp2337
a(I180
I179
tp2338
a(I189
I179
tp2339
a(I189
I170
tp2340
aa(lp2341
(I180
I180
tp2342
a(I180
I189
tp2343
a(I189
I189
tp2344
a(I189
I180
tp2345
aa(lp2346
(I180
I190
tp2347
a(I180
I199
tp2348
a(I189
I199
tp2349
a(I189
I190
tp2350
aa(lp2351
(I180
I200
tp2352
a(I180
I209
tp2353
a(I189
I209
tp2354
a(I189
I200
tp2355
aa(lp2356
(I180
I210
tp2357
a(I180
I219
tp2358
a(I189
I219
tp2359
a(I189
I210
tp2360
aa(lp2361
(I180
I220
tp2362
a(I180
I229
tp2363
a(I189
I229
tp2364
a(I189
I220
tp2365
aa(lp2366
(I180
I230
tp2367
a(I180
I239
tp2368
a(I189
I239
tp2369
a(I189
I230
tp2370
aa(lp2371
(I180
I240
tp2372
a(I180
I249
tp2373
a(I189
I249
tp2374
a(I189
I240
tp2375
aa(lp2376
(I190
I0
tp2377
a(I190
I9
tp2378
a(I199
I9
tp2379
a(I199
I0
tp2380
aa(lp2381
(I190
I10
tp2382
a(I190
I19
tp2383
a(I199
I19
tp2384
a(I199
I10
tp2385
aa(lp2386
(I190
I20
tp2387
a(I190
I29
tp2388
a(I199
I29
tp2389
a(I199
I20
tp2390
aa(lp2391
(I190
I30
tp2392
a(I190
I39
tp2393
a(I199
I39
tp2394
a(I199
I30
tp2395
aa(lp2396
(I190
I40
tp2397
a(I190
I49
tp2398
a(I199
I49
tp2399
a(I199
I40
tp2400
aa(lp2401
(I190
I50
tp2402
a(I190
I59
tp2403
a(I199
I59
tp2404
a(I199
I50
tp2405
aa(lp2406
(I190
I60
tp2407
a(I190
I69
tp2408
a(I199
I69
tp2409
a(I199
I60
tp2410
aa(lp2411
(I190
I70
tp2412
a(I190
I79
tp2413
a(I199
I79
tp2414
a(I199
I70
tp2415
aa(lp2416
(I190
I80
tp2417
a(I190
I89
tp2418
a(I199
I89
tp2419
a(I199
I80
tp2420
aa(lp2421
(I190
I90
tp2422
a(I190
I99
tp2423
a(I199
I99
tp2424
a(I199
I90
tp2425
aa(lp2426
(I190
I100
tp2427
a(I190
I109
tp2428
a(I199
I109
tp2429
a(I199
I100
tp2430
aa(lp2431
(I190
I110
tp2432
a(I190
I119
tp2433
a(I199
I119
tp2434
a(I199
I110
tp2435
aa(lp2436
(I190
I120
tp2437
a(I190
I129
tp2438
a(I199
I129
tp2439
a(I199
I120
tp2440
aa(lp2441
(I190
I130
tp2442
a(I190
I139
tp2443
a(I199
I139
tp2444
a(I199
I130
tp2445
aa(lp2446
(I190
I140
tp2447
a(I190
I149
tp2448
a(I199
I149
tp2449
a(I199
I140
tp2450
aa(lp2451
(I190
I150
tp2452
a(I190
I159
tp2453
a(I199
I159
tp2454
a(I199
I150
tp2455
aa(lp2456
(I190
I160
tp2457
a(I190
I169
tp2458
a(I199
I169
tp2459
a(I199
I160
tp2460
aa(lp2461
(I190
I170
tp2462
a(I190
I179
tp2463
a(I199
I179
tp2464
a(I199
I170
tp2465
aa(lp2466
(I190
I180
tp2467
a(I190
I189
tp2468
a(I199
I189
tp2469
a(I199
I180
tp2470
aa(lp2471
(I190
I190
tp2472
a(I190
I199
tp2473
a(I199
I199
tp2474
a(I199
I190
tp2475
aa(lp2476
(I190
I200
tp2477
a(I190
I209
tp2478
a(I199
I209
tp2479
a(I199
I200
tp2480
aa(lp2481
(I190
I210
tp2482
a(I190
I219
tp2483
a(I199
I219
tp2484
a(I199
I210
tp2485
aa(lp2486
(I190
I220
tp2487
a(I190
I229
tp2488
a(I199
I229
tp2489
a(I199
I220
tp2490
aa(lp2491
(I190
I230
tp2492
a(I190
I239
tp2493
a(I199
I239
tp2494
a(I199
I230
tp2495
aa(lp2496
(I190
I240
tp2497
a(I190
I249
tp2498
a(I199
I249
tp2499
a(I199
I240
tp2500
aa(lp2501
(I200
I0
tp2502
a(I200
I9
tp2503
a(I209
I9
tp2504
a(I209
I0
tp2505
aa(lp2506
(I200
I10
tp2507
a(I200
I19
tp2508
a(I209
I19
tp2509
a(I209
I10
tp2510
aa(lp2511
(I200
I20
tp2512
a(I200
I29
tp2513
a(I209
I29
tp2514
a(I209
I20
tp2515
aa(lp2516
(I200
I30
tp2517
a(I200
I39
tp2518
a(I209
I39
tp2519
a(I209
I30
tp2520
aa(lp2521
(I200
I40
tp2522
a(I200
I49
tp2523
a(I209
I49
tp2524
a(I209
I40
tp2525
aa(lp2526
(I200
I50
tp2527
a(I200
I59
tp2528
a(I209
I59
tp2529
a(I209
I50
tp2530
aa(lp2531
(I200
I60
tp2532
a(I200
I69
tp2533
a(I209
I69
tp2534
a(I209
I60
tp2535
aa(lp2536
(I200
I70
tp2537
a(I200
I79
tp2538
a(I209
I79
tp2539
a(I209
I70
tp2540
aa(lp2541
(I200
I80
tp2542
a(I200
I89
tp2543
a(I209
I89
tp2544
a(I209
I80
tp2545
aa(lp2546
(I200
I90
tp2547
a(I200
I99
tp2548
a(I209
I99
tp2549
a(I209
I90
tp2550
aa(lp2551
(I200
I100
tp2552
a(I200
I109
tp2553
a(I209
I109
tp2554
a(I209
I100
tp2555
aa(lp2556
(I200
I110
tp2557
a(I200
I119
tp2558
a(I209
I119
tp2559
a(I209
I110
tp2560
aa(lp2561
(I200
I120
tp2562
a(I200
I129
tp2563
a(I209
I129
tp2564
a(I209
I120
tp2565
aa(lp2566
(I200
I130
tp2567
a(I200
I139
tp2568
a(I209
I139
tp2569
a(I209
I130
tp2570
aa(lp2571
(I200
I140
tp2572
a(I200
I149
tp2573
a(I209
I149
tp2574
a(I209
I140
tp2575
aa(lp2576
(I200
I150
tp2577
a(I200
I159
tp2578
a(I209
I159
tp2579
a(I209
I150
tp2580
aa(lp2581
(I200
I160
tp2582
a(I200
I169
tp2583
a(I209
I169
tp2584
a(I209
I160
tp2585
aa(lp2586
(I200
I170
tp2587
a(I200
I179
tp2588
a(I209
I179
tp2589
a(I209
I170
tp2590
aa(lp2591
(I200
I180
tp2592
a(I200
I189
tp2593
a(I209
I189
tp2594
a(I209
I180
tp2595
aa(lp2596
(I200
I190
tp2597
a(I200
I199
tp2598
a(I209
I199
tp2599
a(I209
I190
tp2600
aa(lp2601
(I200
I200
tp2602
a(I200
I209
tp2603
a(I209
I209
tp2604
a(I209
I200
tp2605
aa(lp2606
(I200
I210
tp2607
a(I200
I219
tp2608
a(I209
I219
tp2609
a(I209
I210
tp2610
aa(lp2611
(I200
I220
tp2612
a(I200
I229
tp2613
a(I209
I229
tp2614
a(I209
I220
tp2615
aa(lp2616
(I200
I230
tp2617
a(I200
I239
tp2618
a(I209
I239
tp2619
a(I209
I230
tp2620
aa(lp2621
(I200
I240
tp2622
a(I200
I249
tp2623
a(I209
I249
tp2624
a(I209
I240
tp2625
aa(lp2626
(I210
I0
tp2627
a(I210
I9
tp2628
a(I219
I9
tp2629
a(I219
I0
tp2630
aa(lp2631
(I210
I10
tp2632
a(I210
I19
tp2633
a(I219
I19
tp2634
a(I219
I10
tp2635
aa(lp2636
(I210
I20
tp2637
a(I210
I29
tp2638
a(I219
I29
tp2639
a(I219
I20
tp2640
aa(lp2641
(I210
I30
tp2642
a(I210
I39
tp2643
a(I219
I39
tp2644
a(I219
I30
tp2645
aa(lp2646
(I210
I40
tp2647
a(I210
I49
tp2648
a(I219
I49
tp2649
a(I219
I40
tp2650
aa(lp2651
(I210
I50
tp2652
a(I210
I59
tp2653
a(I219
I59
tp2654
a(I219
I50
tp2655
aa(lp2656
(I210
I60
tp2657
a(I210
I69
tp2658
a(I219
I69
tp2659
a(I219
I60
tp2660
aa(lp2661
(I210
I70
tp2662
a(I210
I79
tp2663
a(I219
I79
tp2664
a(I219
I70
tp2665
aa(lp2666
(I210
I80
tp2667
a(I210
I89
tp2668
a(I219
I89
tp2669
a(I219
I80
tp2670
aa(lp2671
(I210
I90
tp2672
a(I210
I99
tp2673
a(I219
I99
tp2674
a(I219
I90
tp2675
aa(lp2676
(I210
I100
tp2677
a(I210
I109
tp2678
a(I219
I109
tp2679
a(I219
I100
tp2680
aa(lp2681
(I210
I110
tp2682
a(I210
I119
tp2683
a(I219
I119
tp2684
a(I219
I110
tp2685
aa(lp2686
(I210
I120
tp2687
a(I210
I129
tp2688
a(I219
I129
tp2689
a(I219
I120
tp2690
aa(lp2691
(I210
I130
tp2692
a(I210
I139
tp2693
a(I219
I139
tp2694
a(I219
I130
tp2695
aa(lp2696
(I210
I140
tp2697
a(I210
I149
tp2698
a(I219
I149
tp2699
a(I219
I140
tp2700
aa(lp2701
(I210
I150
tp2702
a(I210
I159
tp2703
a(I219
I159
tp2704
a(I219
I150
tp2705
aa(lp2706
(I210
I160
tp2707
a(I210
I169
tp2708
a(I219
I169
tp2709
a(I219
I160
tp2710
aa(lp2711
(I210
I170
tp2712
a(I210
I179
tp2713
a(I219
I179
tp2714
a(I219
I170
tp2715
aa(lp2716
(I210
I180
tp2717
a(I210
I189
tp2718
a(I219
I189
tp2719
a(I219
I180
tp2720
aa(lp2721
(I210
I190
tp2722
a(I210
I199
tp2723
a(I219
I199
tp2724
a(I219
I190
tp2725
aa(lp2726
(I210
I200
tp2727
a(I210
I209
tp2728
a(I219
I209
tp2729
a(I219
I200
tp2730
aa(lp2731
(I210
I210
tp2732
a(I210
I219
tp2733
a(I219
I219
tp2734
a(I219
I210
tp2735
aa(lp2736
(I210
I220
tp2737
a(I210
I229
tp2738
a(I219
I229
tp2739
a(I219
I220
tp2740
aa(lp2741
(I210
I230
tp2742
a(I210
I239
tp2743
a(I219
I239
tp2744
a(I219
I230
tp2745
aa(lp2746
(I210
I240
tp2747
a(I210
I249
tp2748
a(I219
I249
tp2749
a(I219
I240
tp2750
aa(lp2751
(I220
I0
tp2752
a(I220
I9
tp2753
a(I229
I9
tp2754
a(I229
I0
tp2755
aa(lp2756
(I220
I10
tp2757
a(I220
I19
tp2758
a(I229
I19
tp2759
a(I229
I10
tp2760
aa(lp2761
(I220
I20
tp2762
a(I220
I29
tp2763
a(I229
I29
tp2764
a(I229
I20
tp2765
aa(lp2766
(I220
I30
tp2767
a(I220
I39
tp2768
a(I229
I39
tp2769
a(I229
I30
tp2770
aa(lp2771
(I220
I40
tp2772
a(I220
I49
tp2773
a(I229
I49
tp2774
a(I229
I40
tp2775
aa(lp2776
(I220
I50
tp2777
a(I220
I59
tp2778
a(I229
I59
tp2779
a(I229
I50
tp2780
aa(lp2781
(I220
I60
tp2782
a(I220
I69
tp2783
a(I229
I69
tp2784
a(I229
I60
tp2785
aa(lp2786
(I220
I70
tp2787
a(I220
I79
tp2788
a(I229
I79
tp2789
a(I229
I70
tp2790
aa(lp2791
(I220
I80
tp2792
a(I220
I89
tp2793
a(I229
I89
tp2794
a(I229
I80
tp2795
aa(lp2796
(I220
I90
tp2797
a(I220
I99
tp2798
a(I229
I99
tp2799
a(I229
I90
tp2800
aa(lp2801
(I220
I100
tp2802
a(I220
I109
tp2803
a(I229
I109
tp2804
a(I229
I100
tp2805
aa(lp2806
(I220
I110
tp2807
a(I220
I119
tp2808
a(I229
I119
tp2809
a(I229
I110
tp2810
aa(lp2811
(I220
I120
tp2812
a(I220
I129
tp2813
a(I229
I129
tp2814
a(I229
I120
tp2815
aa(lp2816
(I220
I130
tp2817
a(I220
I139
tp2818
a(I229
I139
tp2819
a(I229
I130
tp2820
aa(lp2821
(I220
I140
tp2822
a(I220
I149
tp2823
a(I229
I149
tp2824
a(I229
I140
tp2825
aa(lp2826
(I220
I150
tp2827
a(I220
I159
tp2828
a(I229
I159
tp2829
a(I229
I150
tp2830
aa(lp2831
(I220
I160
tp2832
a(I220
I169
tp2833
a(I229
I169
tp2834
a(I229
I160
tp2835
aa(lp2836
(I220
I170
tp2837
a(I220
I179
tp2838
a(I229
I179
tp2839
a(I229
I170
tp2840
aa(lp2841
(I220
I180
tp2842
a(I220
I189
tp2843
a(I229
I189
tp2844
a(I229
I180
tp2845
aa(lp2846
(I220
I190
tp2847
a(I220
I199
tp2848
a(I229
I199
tp2849
a(I229
I190
tp2850
aa(lp2851
(I220
I200
tp2852
a(I220
I209
tp2853
a(I229
I209
tp2854
a(I229
I200
tp2855
aa(lp2856
(I220
I210
tp2857
a(I220
I219
tp2858
a(I229
I219
tp2859
a(I229
I210
tp2860
aa(lp2861
(I220
I220
tp2862
a(I220
I229
tp2863
a(I229
I229
tp2864
a(I229
I220
tp2865
aa(lp2866
(I220
I230
tp2867
a(I220
I239
tp2868
a(I229
I239
tp2869
a(I229
I230
tp2870
aa(lp2871
(I220
I240
tp2872
a(I220
I249
tp2873
a(I229
I249
tp2874
a(I229
I240
tp2875
aa(lp2876
(I230
I0
tp2877
a(I230
I9
tp2878
a(I239
I9
tp2879
a(I239
I0
tp2880
aa(lp2881
(I230
I10
tp2882
a(I230
I19
tp2883
a(I239
I19
tp2884
a(I239
I10
tp2885
aa(lp2886
(I230
I20
tp2887
a(I230
I29
tp2888
a(I239
I29
tp2889
a(I239
I20
tp2890
aa(lp2891
(I230
I30
tp2892
a(I230
I39
tp2893
a(I239
I39
tp2894
a(I239
I30
tp2895
aa(lp2896
(I230
I40
tp2897
a(I230
I49
tp2898
a(I239
I49
tp2899
a(I239
I40
tp2900
aa(lp2901
(I230
I50
tp2902
a(I230
I59
tp2903
a(I239
I59
tp2904
a(I239
I50
tp2905
aa(lp2906
(I230
I60
tp2907
a(I230
I69
tp2908
a(I239
I69
tp2909
a(I239
I60
tp2910
aa(lp2911
(I230
I70
tp2912
a(I230
I79
tp2913
a(I239
I79
tp2914
a(I239
I70
tp2915
aa(lp2916
(I230
I80
tp2917
a(I230
I89
tp2918
a(I239
I89
tp2919
a(I239
I80
tp2920
aa(lp2921
(I230
I90
tp2922
a(I230
I99
tp2923
a(I239
I99
tp2924
a(I239
I90
tp2925
aa(lp2926
(I230
I100
tp2927
a(I230
I109
tp2928
a(I239
I109
tp2929
a(I239
I100
tp2930
aa(lp2931
(I230
I110
tp2932
a(I230
I119
tp2933
a(I239
I119
tp2934
a(I239
I110
tp2935
aa(lp2936
(I230
I120
tp2937
a(I230
I129
tp2938
a(I239
I129
tp2939
a(I239
I120
tp2940
aa(lp2941
(I230
I130
tp2942
a(I230
I139
tp2943
a(I239
I139
tp2944
a(I239
I130
tp2945
aa(lp2946
(I230
I140
tp2947
a(I230
I149
tp2948
a(I239
I149
tp2949
a(I239
I140
tp2950
aa(lp2951
(I230
I150
tp2952
a(I230
I159
tp2953
a(I239
I159
tp2954
a(I239
I150
tp2955
aa(lp2956
(I230
I160
tp2957
a(I230
I169
tp2958
a(I239
I169
tp2959
a(I239
I160
tp2960
aa(lp2961
(I230
I170
tp2962
a(I230
I179
tp2963
a(I239
I179
tp2964
a(I239
I170
tp2965
aa(lp2966
(I230
I180
tp2967
a(I230
I189
tp2968
a(I239
I189
tp2969
a(I239
I180
tp2970
aa(lp2971
(I230
I190
tp2972
a(I230
I199
tp2973
a(I239
I199
tp2974
a(I239
I190
tp2975
aa(lp2976
(I230
I200
tp2977
a(I230
I209
tp2978
a(I239
I209
tp2979
a(I239
I200
tp2980
aa(lp2981
(I230
I210
tp2982
a(I230
I219
tp2983
a(I239
I219
tp2984
a(I239
I210
tp2985
aa(lp2986
(I230
I220
tp2987
a(I230
I229
tp2988
a(I239
I229
tp2989
a(I239
I220
tp2990
aa(lp2991
(I230
I230
tp2992
a(I230
I239
tp2993
a(I239
I239
tp2994
a(I239
I230
tp2995
aa(lp2996
(I230
I240
tp2997
a(I230
I249
tp2998
a(I239
I249
tp2999
a(I239
I240
tp3000
aa(lp3001
(I240
I0
tp3002
a(I240
I9
tp3003
a(I249
I9
tp3004
a(I249
I0
tp3005
aa(lp3006
(I240
I10
tp3007
a(I240
I19
tp3008
a(I249
I19
tp3009
a(I249
I10
tp3010
aa(lp3011
(I240
I20
tp3012
a(I240
I29
tp3013
a(I249
I29
tp3014
a(I249
I20
tp3015
aa(lp3016
(I240
I30
tp3017
a(I240
I39
tp3018
a(I249
I39
tp3019
a(I249
I30
tp3020
aa(lp3021
(I240
I40
tp3022
a(I240
I49
tp3023
a(I249
I49
tp3024
a(I249
I40
tp3025
aa(lp3026
(I240
I50
tp3027
a(I240
I59
tp3028
a(I249
I59
tp3029
a(I249
I50
tp3030
aa(lp3031
(I240
I60
tp3032
a(I240
I69
tp3033
a(I249
I69
tp3034
a(I249
I60
tp3035
aa(lp3036
(I240
I70
tp3037
a(I240
I79
tp3038
a(I249
I79
tp3039
a(I249
I70
tp3040
aa(lp3041
(I240
I80
tp3042
a(I240
I89
tp3043
a(I249
I89
tp3044
a(I249
I80
tp3045
aa(lp3046
(I240
I90
tp3047
a(I240
I99
tp3048
a(I249
I99
tp3049
a(I249
I90
tp3050
aa(lp3051
(I240
I100
tp3052
a(I240
I109
tp3053
a(I249
I109
tp3054
a(I249
I100
tp3055
aa(lp3056
(I240
I110
tp3057
a(I240
I119
tp3058
a(I249
I119
tp3059
a(I249
I110
tp3060
aa(lp3061
(I240
I120
tp3062
a(I240
I129
tp3063
a(I249
I129
tp3064
a(I249
I120
tp3065
aa(lp3066
(I240
I130
tp3067
a(I240
I139
tp3068
a(I249
I139
tp3069
a(I249
I130
tp3070
aa(lp3071
(I240
I140
tp3072
a(I240
I149
tp3073
a(I249
I149
tp3074
a(I249
I140
tp3075
aa(lp3076
(I240
I150
tp3077
a(I240
I159
tp3078
a(I249
I159
tp3079
a(I249
I150
tp3080
aa(lp3081
(I240
I160
tp3082
a(I240
I169
tp3083
a(I249
I169
tp3084
a(I249
I160
tp3085
aa(lp3086
(I240
I170
tp3087
a(I240
I179
tp3088
a(I249
I179
tp3089
a(I249
I170
tp3090
aa(lp3091
(I240
I180
tp3092
a(I240
I189
tp3093
a(I249
I189
tp3094
a(I249
I180
tp3095
aa(lp3096
(I240
I190
tp3097
a(I240
I199
tp3098
a(I249
I199
tp3099
a(I249
I190
tp3100
aa(lp3101
(I240
I200
tp3102
a(I240
I209
tp3103
a(I249
I209
tp3104
a(I249
I200
tp3105
aa(lp3106
(I240
I210
tp3107
a(I240
I219
tp3108
a(I249
I219
tp3109
a(I249
I210
tp3110
aa(lp3111
(I240
I220
tp3112
a(I240
I229
tp3113
a(I249
I229
tp3114
a(I249
I220
tp3115
aa(lp3116
(I240
I230
tp3117
a(I240
I239
tp3118
a(I249
I239
tp3119
a(I249
I230
tp3120
aa(lp3121
(I240
I240
tp3122
a(I240
I249
tp3123
a(I249
I249
tp3124
a(I249
I240
tp3125
aa(lp3126
(I250
I0
tp3127
a(I250
I9
tp3128
a(I259
I9
tp3129
a(I259
I0
tp3130
aa(lp3131
(I250
I10
tp3132
a(I250
I19
tp3133
a(I259
I19
tp3134
a(I259
I10
tp3135
aa(lp3136
(I250
I20
tp3137
a(I250
I29
tp3138
a(I259
I29
tp3139
a(I259
I20
tp3140
aa(lp3141
(I250
I30
tp3142
a(I250
I39
tp3143
a(I259
I39
tp3144
a(I259
I30
tp3145
aa(lp3146
(I250
I40
tp3147
a(I250
I49
tp3148
a(I259
I49
tp3149
a(I259
I40
tp3150
aa(lp3151
(I250
I50
tp3152
a(I250
I59
tp3153
a(I259
I59
tp3154
a(I259
I50
tp3155
aa(lp3156
(I250
I60
tp3157
a(I250
I69
tp3158
a(I259
I69
tp3159
a(I259
I60
tp3160
aa(lp3161
(I250
I70
tp3162
a(I250
I79
tp3163
a(I259
I79
tp3164
a(I259
I70
tp3165
aa(lp3166
(I250
I80
tp3167
a(I250
I89
tp3168
a(I259
I89
tp3169
a(I259
I80
tp3170
aa(lp3171
(I250
I90
tp3172
a(I250
I99
tp3173
a(I259
I99
tp3174
a(I259
I90
tp3175
aa(lp3176
(I250
I100
tp3177
a(I250
I109
tp3178
a(I259
I109
tp3179
a(I259
I100
tp3180
aa(lp3181
(I250
I110
tp3182
a(I250
I119
tp3183
a(I259
I119
tp3184
a(I259
I110
tp3185
aa(lp3186
(I250
I120
tp3187
a(I250
I129
tp3188
a(I259
I129
tp3189
a(I259
I120
tp3190
aa(lp3191
(I250
I130
tp3192
a(I250
I139
tp3193
a(I259
I139
tp3194
a(I259
I130
tp3195
aa(lp3196
(I250
I140
tp3197
a(I250
I149
tp3198
a(I259
I149
tp3199
a(I259
I140
tp3200
aa(lp3201
(I250
I150
tp3202
a(I250
I159
tp3203
a(I259
I159
tp3204
a(I259
I150
tp3205
aa(lp3206
(I250
I160
tp3207
a(I250
I169
tp3208
a(I259
I169
tp3209
a(I259
I160
tp3210
aa(lp3211
(I250
I170
tp3212
a(I250
I179
tp3213
a(I259
I179
tp3214
a(I259
I170
tp3215
aa(lp3216
(I250
I180
tp3217
a(I250
I189
tp3218
a(I259
I189
tp3219
a(I259
I180
tp3220
aa(lp3221
(I250
I190
tp3222
a(I250
I199
tp3223
a(I259
I199
tp3224
a(I259
I190
tp3225
aa(lp3226
(I250
I200
tp3227
a(I250
I209
tp3228
a(I259
I209
tp3229
a(I259
I200
tp3230
aa(lp3231
(I250
I210
tp3232
a(I250
I219
tp3233
a(I259
I219
tp3234
a(I259
I210
tp3235
aa(lp3236
(I250
I220
tp3237
a(I250
I229
tp3238
a(I259
I229
tp3239
a(I259
I220
tp3240
aa(lp3241
(I250
I230
tp3242
a(I250
I239
tp3243
a(I259
I239
tp3244
a(I259
I230
tp3245
aa(lp3246
(I250
I240
tp3247
a(I250
I249
tp3248
a(I259
I249
tp3249
a(I259
I240
tp3250
aa(lp3251
(I260
I0
tp3252
a(I260
I9
tp3253
a(I269
I9
tp3254
a(I269
I0
tp3255
aa(lp3256
(I260
I10
tp3257
a(I260
I19
tp3258
a(I269
I19
tp3259
a(I269
I10
tp3260
aa(lp3261
(I260
I20
tp3262
a(I260
I29
tp3263
a(I269
I29
tp3264
a(I269
I20
tp3265
aa(lp3266
(I260
I30
tp3267
a(I260
I39
tp3268
a(I269
I39
tp3269
a(I269
I30
tp3270
aa(lp3271
(I260
I40
tp3272
a(I260
I49
tp3273
a(I269
I49
tp3274
a(I269
I40
tp3275
aa(lp3276
(I260
I50
tp3277
a(I260
I59
tp3278
a(I269
I59
tp3279
a(I269
I50
tp3280
aa(lp3281
(I260
I60
tp3282
a(I260
I69
tp3283
a(I269
I69
tp3284
a(I269
I60
tp3285
aa(lp3286
(I260
I70
tp3287
a(I260
I79
tp3288
a(I269
I79
tp3289
a(I269
I70
tp3290
aa(lp3291
(I260
I80
tp3292
a(I260
I89
tp3293
a(I269
I89
tp3294
a(I269
I80
tp3295
aa(lp3296
(I260
I90
tp3297
a(I260
I99
tp3298
a(I269
I99
tp3299
a(I269
I90
tp3300
aa(lp3301
(I260
I100
tp3302
a(I260
I109
tp3303
a(I269
I109
tp3304
a(I269
I100
tp3305
aa(lp3306
(I260
I110
tp3307
a(I260
I119
tp3308
a(I269
I119
tp3309
a(I269
I110
tp3310
aa(lp3311
(I260
I120
tp3312
a(I260
I129
tp3313
a(I269
I129
tp3314
a(I269
I120
tp3315
aa(lp3316
(I260
I130
tp3317
a(I260
I139
tp3318
a(I269
I139
tp3319
a(I269
I130
tp3320
aa(lp3321
(I260
I140
tp3322
a(I260
I149
tp3323
a(I269
I149
tp3324
a(I269
I140
tp3325
aa(lp3326
(I260
I150
tp3327
a(I260
I159
tp3328
a(I269
I159
tp3329
a(I269
I150
tp3330
aa(lp3331
(I260
I160
tp3332
a(I260
I169
tp3333
a(I269
I169
tp3334
a(I269
I160
tp3335
aa(lp3336
(I260
I170
tp3337
a(I260
I179
tp3338
a(I269
I179
tp3339
a(I269
I170
tp3340
aa(lp3341
(I260
I180
tp3342
a(I260
I189
tp3343
a(I269
I189
tp3344
a(I269
I180
tp3345
aa(lp3346
(I260
I190
tp3347
a(I260
I199
tp3348
a(I269
I199
tp3349
a(I269
I190
tp3350
aa(lp3351
(I260
I200
tp3352
a(I260
I209
tp3353
a(I269
I209
tp3354
a(I269
I200
tp3355
aa(lp3356
(I260
I210
tp3357
a(I260
I219
tp3358
a(I269
I219
tp3359
a(I269
I210
tp3360
aa(lp3361
(I260
I220
tp3362
a(I260
I229
tp3363
a(I269
I229
tp3364
a(I269
I220
tp3365
aa(lp3366
(I260
I230
tp3367
a(I260
I239
tp3368
a(I269
I239
tp3369
a(I269
I230
tp3370
aa(lp3371
(I260
I240
tp3372
a(I260
I249
tp3373
a(I269
I249
tp3374
a(I269
I240
tp3375
aa(lp3376
(I270
I0
tp3377
a(I270
I9
tp3378
a(I279
I9
tp3379
a(I279
I0
tp3380
aa(lp3381
(I270
I10
tp3382
a(I270
I19
tp3383
a(I279
I19
tp3384
a(I279
I10
tp3385
aa(lp3386
(I270
I20
tp3387
a(I270
I29
tp3388
a(I279
I29
tp3389
a(I279
I20
tp3390
aa(lp3391
(I270
I30
tp3392
a(I270
I39
tp3393
a(I279
I39
tp3394
a(I279
I30
tp3395
aa(lp3396
(I270
I40
tp3397
a(I270
I49
tp3398
a(I279
I49
tp3399
a(I279
I40
tp3400
aa(lp3401
(I270
I50
tp3402
a(I270
I59
tp3403
a(I279
I59
tp3404
a(I279
I50
tp3405
aa(lp3406
(I270
I60
tp3407
a(I270
I69
tp3408
a(I279
I69
tp3409
a(I279
I60
tp3410
aa(lp3411
(I270
I70
tp3412
a(I270
I79
tp3413
a(I279
I79
tp3414
a(I279
I70
tp3415
aa(lp3416
(I270
I80
tp3417
a(I270
I89
tp3418
a(I279
I89
tp3419
a(I279
I80
tp3420
aa(lp3421
(I270
I90
tp3422
a(I270
I99
tp3423
a(I279
I99
tp3424
a(I279
I90
tp3425
aa(lp3426
(I270
I100
tp3427
a(I270
I109
tp3428
a(I279
I109
tp3429
a(I279
I100
tp3430
aa(lp3431
(I270
I110
tp3432
a(I270
I119
tp3433
a(I279
I119
tp3434
a(I279
I110
tp3435
aa(lp3436
(I270
I120
tp3437
a(I270
I129
tp3438
a(I279
I129
tp3439
a(I279
I120
tp3440
aa(lp3441
(I270
I130
tp3442
a(I270
I139
tp3443
a(I279
I139
tp3444
a(I279
I130
tp3445
aa(lp3446
(I270
I140
tp3447
a(I270
I149
tp3448
a(I279
I149
tp3449
a(I279
I140
tp3450
aa(lp3451
(I270
I150
tp3452
a(I270
I159
tp3453
a(I279
I159
tp3454
a(I279
I150
tp3455
aa(lp3456
(I270
I160
tp3457
a(I270
I169
tp3458
a(I279
I169
tp3459
a(I279
I160
tp3460
aa(lp3461
(I270
I170
tp3462
a(I270
I179
tp3463
a(I279
I179
tp3464
a(I279
I170
tp3465
aa(lp3466
(I270
I180
tp3467
a(I270
I189
tp3468
a(I279
I189
tp3469
a(I279
I180
tp3470
aa(lp3471
(I270
I190
tp3472
a(I270
I199
tp3473
a(I279
I199
tp3474
a(I279
I190
tp3475
aa(lp3476
(I270
I200
tp3477
a(I270
I209
tp3478
a(I279
I209
tp3479
a(I279
I200
tp3480
aa(lp3481
(I270
I210
tp3482
a(I270
I219
tp3483
a(I279
I219
tp3484
a(I279
I210
tp3485
aa(lp3486
(I270
I220
tp3487
a(I270
I229
tp3488
a(I279
I229
tp3489
a(I279
I220
tp3490
aa(lp3491
(I270
I230
tp3492
a(I270
I239
tp3493
a(I279
I239
tp3494
a(I279
I230
tp3495
aa(lp3496
(I270
I240
tp3497
a(I270
I249
tp3498
a(I279
I249
tp3499
a(I279
I240
tp3500
aa(lp3501
(I280
I0
tp3502
a(I280
I9
tp3503
a(I289
I9
tp3504
a(I289
I0
tp3505
aa(lp3506
(I280
I10
tp3507
a(I280
I19
tp3508
a(I289
I19
tp3509
a(I289
I10
tp3510
aa(lp3511
(I280
I20
tp3512
a(I280
I29
tp3513
a(I289
I29
tp3514
a(I289
I20
tp3515
aa(lp3516
(I280
I30
tp3517
a(I280
I39
tp3518
a(I289
I39
tp3519
a(I289
I30
tp3520
aa(lp3521
(I280
I40
tp3522
a(I280
I49
tp3523
a(I289
I49
tp3524
a(I289
I40
tp3525
aa(lp3526
(I280
I50
tp3527
a(I280
I59
tp3528
a(I289
I59
tp3529
a(I289
I50
tp3530
aa(lp3531
(I280
I60
tp3532
a(I280
I69
tp3533
a(I289
I69
tp3534
a(I289
I60
tp3535
aa(lp3536
(I280
I70
tp3537
a(I280
I79
tp3538
a(I289
I79
tp3539
a(I289
I70
tp3540
aa(lp3541
(I280
I80
tp3542
a(I280
I89
tp3543
a(I289
I89
tp3544
a(I289
I80
tp3545
aa(lp3546
(I280
I90
tp3547
a(I280
I99
tp3548
a(I289
I99
tp3549
a(I289
I90
tp3550
aa(lp3551
(I280
I100
tp3552
a(I280
I109
tp3553
a(I289
I109
tp3554
a(I289
I100
tp3555
aa(lp3556
(I280
I110
tp3557
a(I280
I119
tp3558
a(I289
I119
tp3559
a(I289
I110
tp3560
aa(lp3561
(I280
I120
tp3562
a(I280
I129
tp3563
a(I289
I129
tp3564
a(I289
I120
tp3565
aa(lp3566
(I280
I130
tp3567
a(I280
I139
tp3568
a(I289
I139
tp3569
a(I289
I130
tp3570
aa(lp3571
(I280
I140
tp3572
a(I280
I149
tp3573
a(I289
I149
tp3574
a(I289
I140
tp3575
aa(lp3576
(I280
I150
tp3577
a(I280
I159
tp3578
a(I289
I159
tp3579
a(I289
I150
tp3580
aa(lp3581
(I280
I160
tp3582
a(I280
I169
tp3583
a(I289
I169
tp3584
a(I289
I160
tp3585
aa(lp3586
(I280
I170
tp3587
a(I280
I179
tp3588
a(I289
I179
tp3589
a(I289
I170
tp3590
aa(lp3591
(I280
I180
tp3592
a(I280
I189
tp3593
a(I289
I189
tp3594
a(I289
I180
tp3595
aa(lp3596
(I280
I190
tp3597
a(I280
I199
tp3598
a(I289
I199
tp3599
a(I289
I190
tp3600
aa(lp3601
(I280
I200
tp3602
a(I280
I209
tp3603
a(I289
I209
tp3604
a(I289
I200
tp3605
aa(lp3606
(I280
I210
tp3607
a(I280
I219
tp3608
a(I289
I219
tp3609
a(I289
I210
tp3610
aa(lp3611
(I280
I220
tp3612
a(I280
I229
tp3613
a(I289
I229
tp3614
a(I289
I220
tp3615
aa(lp3616
(I280
I230
tp3617
a(I280
I239
tp3618
a(I289
I239
tp3619
a(I289
I230
tp3620
aa(lp3621
(I280
I240
tp3622
a(I280
I249
tp3623
a(I289
I249
tp3624
a(I289
I240
tp3625
aa(lp3626
(I290
I0
tp3627
a(I290
I9
tp3628
a(I299
I9
tp3629
a(I299
I0
tp3630
aa(lp3631
(I290
I10
tp3632
a(I290
I19
tp3633
a(I299
I19
tp3634
a(I299
I10
tp3635
aa(lp3636
(I290
I20
tp3637
a(I290
I29
tp3638
a(I299
I29
tp3639
a(I299
I20
tp3640
aa(lp3641
(I290
I30
tp3642
a(I290
I39
tp3643
a(I299
I39
tp3644
a(I299
I30
tp3645
aa(lp3646
(I290
I40
tp3647
a(I290
I49
tp3648
a(I299
I49
tp3649
a(I299
I40
tp3650
aa(lp3651
(I290
I50
tp3652
a(I290
I59
tp3653
a(I299
I59
tp3654
a(I299
I50
tp3655
aa(lp3656
(I290
I60
tp3657
a(I290
I69
tp3658
a(I299
I69
tp3659
a(I299
I60
tp3660
aa(lp3661
(I290
I70
tp3662
a(I290
I79
tp3663
a(I299
I79
tp3664
a(I299
I70
tp3665
aa(lp3666
(I290
I80
tp3667
a(I290
I89
tp3668
a(I299
I89
tp3669
a(I299
I80
tp3670
aa(lp3671
(I290
I90
tp3672
a(I290
I99
tp3673
a(I299
I99
tp3674
a(I299
I90
tp3675
aa(lp3676
(I290
I100
tp3677
a(I290
I109
tp3678
a(I299
I109
tp3679
a(I299
I100
tp3680
aa(lp3681
(I290
I110
tp3682
a(I290
I119
tp3683
a(I299
I119
tp3684
a(I299
I110
tp3685
aa(lp3686
(I290
I120
tp3687
a(I290
I129
tp3688
a(I299
I129
tp3689
a(I299
I120
tp3690
aa(lp3691
(I290
I130
tp3692
a(I290
I139
tp3693
a(I299
I139
tp3694
a(I299
I130
tp3695
aa(lp3696
(I290
I140
tp3697
a(I290
I149
tp3698
a(I299
I149
tp3699
a(I299
I140
tp3700
aa(lp3701
(I290
I150
tp3702
a(I290
I159
tp3703
a(I299
I159
tp3704
a(I299
I150
tp3705
aa(lp3706
(I290
I160
tp3707
a(I290
I169
tp3708
a(I299
I169
tp3709
a(I299
I160
tp3710
aa(lp3711
(I290
I170
tp3712
a(I290
I179
tp3713
a(I299
I179
tp3714
a(I299
I170
tp3715
aa(lp3716
(I290
I180
tp3717
a(I290
I189
tp3718
a(I299
I189
tp3719
a(I299
I180
tp3720
aa(lp3721
(I290
I190
tp3722
a(I290
I199
tp3723
a(I299
I199
tp3724
a(I299
I190
tp3725
aa(lp3726
(I290
I200
tp3727
a(I290
I209
tp3728
a(I299
I209
tp3729
a(I299
I200
tp3730
aa(lp3731
(I290
I210
tp3732
a(I290
I219
tp3733
a(I299
I219
tp3734
a(I299
I210
tp3735
aa(lp3736
(I290
I220
tp3737
a(I290
I229
tp3738
a(I299
I229
tp3739
a(I299
I220
tp3740
aa(lp3741
(I290
I230
tp3742
a(I290
I239
tp3743
a(I299
I239
tp3744
a(I299
I230
tp3745
aa(lp3746
(I290
I240
tp3747
a(I290
I249
tp3748
a(I299
I249
tp3749
a(I299
I240
tp3750
aa(lp3751
(I300
I0
tp3752
a(I300
I9
tp3753
a(I309
I9
tp3754
a(I309
I0
tp3755
aa(lp3756
(I300
I10
tp3757
a(I300
I19
tp3758
a(I309
I19
tp3759
a(I309
I10
tp3760
aa(lp3761
(I300
I20
tp3762
a(I300
I29
tp3763
a(I309
I29
tp3764
a(I309
I20
tp3765
aa(lp3766
(I300
I30
tp3767
a(I300
I39
tp3768
a(I309
I39
tp3769
a(I309
I30
tp3770
aa(lp3771
(I300
I40
tp3772
a(I300
I49
tp3773
a(I309
I49
tp3774
a(I309
I40
tp3775
aa(lp3776
(I300
I50
tp3777
a(I300
I59
tp3778
a(I309
I59
tp3779
a(I309
I50
tp3780
aa(lp3781
(I300
I60
tp3782
a(I300
I69
tp3783
a(I309
I69
tp3784
a(I309
I60
tp3785
aa(lp3786
(I300
I70
tp3787
a(I300
I79
tp3788
a(I309
I79
tp3789
a(I309
I70
tp3790
aa(lp3791
(I300
I80
tp3792
a(I300
I89
tp3793
a(I309
I89
tp3794
a(I309
I80
tp3795
aa(lp3796
(I300
I90
tp3797
a(I300
I99
tp3798
a(I309
I99
tp3799
a(I309
I90
tp3800
aa(lp3801
(I300
I100
tp3802
a(I300
I109
tp3803
a(I309
I109
tp3804
a(I309
I100
tp3805
aa(lp3806
(I300
I110
tp3807
a(I300
I119
tp3808
a(I309
I119
tp3809
a(I309
I110
tp3810
aa(lp3811
(I300
I120
tp3812
a(I300
I129
tp3813
a(I309
I129
tp3814
a(I309
I120
tp3815
aa(lp3816
(I300
I130
tp3817
a(I300
I139
tp3818
a(I309
I139
tp3819
a(I309
I130
tp3820
aa(lp3821
(I300
I140
tp3822
a(I300
I149
tp3823
a(I309
I149
tp3824
a(I309
I140
tp3825
aa(lp3826
(I300
I150
tp3827
a(I300
I159
tp3828
a(I309
I159
tp3829
a(I309
I150
tp3830
aa(lp3831
(I300
I160
tp3832
a(I300
I169
tp3833
a(I309
I169
tp3834
a(I309
I160
tp3835
aa(lp3836
(I300
I170
tp3837
a(I300
I179
tp3838
a(I309
I179
tp3839
a(I309
I170
tp3840
aa(lp3841
(I300
I180
tp3842
a(I300
I189
tp3843
a(I309
I189
tp3844
a(I309
I180
tp3845
aa(lp3846
(I300
I190
tp3847
a(I300
I199
tp3848
a(I309
I199
tp3849
a(I309
I190
tp3850
aa(lp3851
(I300
I200
tp3852
a(I300
I209
tp3853
a(I309
I209
tp3854
a(I309
I200
tp3855
aa(lp3856
(I300
I210
tp3857
a(I300
I219
tp3858
a(I309
I219
tp3859
a(I309
I210
tp3860
aa(lp3861
(I300
I220
tp3862
a(I300
I229
tp3863
a(I309
I229
tp3864
a(I309
I220
tp3865
aa(lp3866
(I300
I230
tp3867
a(I300
I239
tp3868
a(I309
I239
tp3869
a(I309
I230
tp3870
aa(lp3871
(I300
I240
tp3872
a(I300
I249
tp3873
a(I309
I249
tp3874
a(I309
I240
tp3875
aa(lp3876
(I310
I0
tp3877
a(I310
I9
tp3878
a(I319
I9
tp3879
a(I319
I0
tp3880
aa(lp3881
(I310
I10
tp3882
a(I310
I19
tp3883
a(I319
I19
tp3884
a(I319
I10
tp3885
aa(lp3886
(I310
I20
tp3887
a(I310
I29
tp3888
a(I319
I29
tp3889
a(I319
I20
tp3890
aa(lp3891
(I310
I30
tp3892
a(I310
I39
tp3893
a(I319
I39
tp3894
a(I319
I30
tp3895
aa(lp3896
(I310
I40
tp3897
a(I310
I49
tp3898
a(I319
I49
tp3899
a(I319
I40
tp3900
aa(lp3901
(I310
I50
tp3902
a(I310
I59
tp3903
a(I319
I59
tp3904
a(I319
I50
tp3905
aa(lp3906
(I310
I60
tp3907
a(I310
I69
tp3908
a(I319
I69
tp3909
a(I319
I60
tp3910
aa(lp3911
(I310
I70
tp3912
a(I310
I79
tp3913
a(I319
I79
tp3914
a(I319
I70
tp3915
aa(lp3916
(I310
I80
tp3917
a(I310
I89
tp3918
a(I319
I89
tp3919
a(I319
I80
tp3920
aa(lp3921
(I310
I90
tp3922
a(I310
I99
tp3923
a(I319
I99
tp3924
a(I319
I90
tp3925
aa(lp3926
(I310
I100
tp3927
a(I310
I109
tp3928
a(I319
I109
tp3929
a(I319
I100
tp3930
aa(lp3931
(I310
I110
tp3932
a(I310
I119
tp3933
a(I319
I119
tp3934
a(I319
I110
tp3935
aa(lp3936
(I310
I120
tp3937
a(I310
I129
tp3938
a(I319
I129
tp3939
a(I319
I120
tp3940
aa(lp3941
(I310
I130
tp3942
a(I310
I139
tp3943
a(I319
I139
tp3944
a(I319
I130
tp3945
aa(lp3946
(I310
I140
tp3947
a(I310
I149
tp3948
a(I319
I149
tp3949
a(I319
I140
tp3950
aa(lp3951
(I310
I150
tp3952
a(I310
I159
tp3953
a(I319
I159
tp3954
a(I319
I150
tp3955
aa(lp3956
(I310
I160
tp3957
a(I310
I169
tp3958
a(I319
I169
tp3959
a(I319
I160
tp3960
aa(lp3961
(I310
I170
tp3962
a(I310
I179
tp3963
a(I319
I179
tp3964
a(I319
I170
tp3965
aa(lp3966
(I310
I180
tp3967
a(I310
I189
tp3968
a(I319
I189
tp3969
a(I319
I180
tp3970
aa(lp3971
(I310
I190
tp3972
a(I310
I199
tp3973
a(I319
I199
tp3974
a(I319
I190
tp3975
aa(lp3976
(I310
I200
tp3977
a(I310
I209
tp3978
a(I319
I209
tp3979
a(I319
I200
tp3980
aa(lp3981
(I310
I210
tp3982
a(I310
I219
tp3983
a(I319
I219
tp3984
a(I319
I210
tp3985
aa(lp3986
(I310
I220
tp3987
a(I310
I229
tp3988
a(I319
I229
tp3989
a(I319
I220
tp3990
aa(lp3991
(I310
I230
tp3992
a(I310
I239
tp3993
a(I319
I239
tp3994
a(I319
I230
tp3995
aa(lp3996
(I310
I240
tp3997
a(I310
I249
tp3998
a(I319
I249
tp3999
a(I319
I240
tp4000
aa(lp4001
(I320
I0
tp4002
a(I320
I9
tp4003
a(I329
I9
tp4004
a(I329
I0
tp4005
aa(lp4006
(I320
I10
tp4007
a(I320
I19
tp4008
a(I329
I19
tp4009
a(I329
I10
tp4010
aa(lp4011
(I320
I20
tp4012
a(I320
I29
tp4013
a(I329
I29
tp4014
a(I329
I20
tp4015
aa(lp4016
(I320
I30
tp4017
a(I320
I39
tp4018
a(I329
I39
tp4019
a(I329
I30
tp4020
aa(lp4021
(I320
I40
tp4022
a(I320
I49
tp4023
a(I329
I49
tp4024
a(I329
I40
tp4025
aa(lp4026
(I320
I50
tp4027
a(I320
I59
tp4028
a(I329
I59
tp4029
a(I329
I50
tp4030
aa(lp4031
(I320
I60
tp4032
a(I320
I69
tp4033
a(I329
I69
tp4034
a(I329
I60
tp4035
aa(lp4036
(I320
I70
tp4037
a(I320
I79
tp4038
a(I329
I79
tp4039
a(I329
I70
tp4040
aa(lp4041
(I320
I80
tp4042
a(I320
I89
tp4043
a(I329
I89
tp4044
a(I329
I80
tp4045
aa(lp4046
(I320
I90
tp4047
a(I320
I99
tp4048
a(I329
I99
tp4049
a(I329
I90
tp4050
aa(lp4051
(I320
I100
tp4052
a(I320
I109
tp4053
a(I329
I109
tp4054
a(I329
I100
tp4055
aa(lp4056
(I320
I110
tp4057
a(I320
I119
tp4058
a(I329
I119
tp4059
a(I329
I110
tp4060
aa(lp4061
(I320
I120
tp4062
a(I320
I129
tp4063
a(I329
I129
tp4064
a(I329
I120
tp4065
aa(lp4066
(I320
I130
tp4067
a(I320
I139
tp4068
a(I329
I139
tp4069
a(I329
I130
tp4070
aa(lp4071
(I320
I140
tp4072
a(I320
I149
tp4073
a(I329
I149
tp4074
a(I329
I140
tp4075
aa(lp4076
(I320
I150
tp4077
a(I320
I159
tp4078
a(I329
I159
tp4079
a(I329
I150
tp4080
aa(lp4081
(I320
I160
tp4082
a(I320
I169
tp4083
a(I329
I169
tp4084
a(I329
I160
tp4085
aa(lp4086
(I320
I170
tp4087
a(I320
I179
tp4088
a(I329
I179
tp4089
a(I329
I170
tp4090
aa(lp4091
(I320
I180
tp4092
a(I320
I189
tp4093
a(I329
I189
tp4094
a(I329
I180
tp4095
aa(lp4096
(I320
I190
tp4097
a(I320
I199
tp4098
a(I329
I199
tp4099
a(I329
I190
tp4100
aa(lp4101
(I320
I200
tp4102
a(I320
I209
tp4103
a(I329
I209
tp4104
a(I329
I200
tp4105
aa(lp4106
(I320
I210
tp4107
a(I320
I219
tp4108
a(I329
I219
tp4109
a(I329
I210
tp4110
aa(lp4111
(I320
I220
tp4112
a(I320
I229
tp4113
a(I329
I229
tp4114
a(I329
I220
tp4115
aa(lp4116
(I320
I230
tp4117
a(I320
I239
tp4118
a(I329
I239
tp4119
a(I329
I230
tp4120
aa(lp4121
(I320
I240
tp4122
a(I320
I249
tp4123
a(I329
I249
tp4124
a(I329
I240
tp4125
aa(lp4126
(I330
I0
tp4127
a(I330
I9
tp4128
a(I339
I9
tp4129
a(I339
I0
tp4130
aa(lp4131
(I330
I10
tp4132
a(I330
I19
tp4133
a(I339
I19
tp4134
a(I339
I10
tp4135
aa(lp4136
(I330
I20
tp4137
a(I330
I29
tp4138
a(I339
I29
tp4139
a(I339
I20
tp4140
aa(lp4141
(I330
I30
tp4142
a(I330
I39
tp4143
a(I339
I39
tp4144
a(I339
I30
tp4145
aa(lp4146
(I330
I40
tp4147
a(I330
I49
tp4148
a(I339
I49
tp4149
a(I339
I40
tp4150
aa(lp4151
(I330
I50
tp4152
a(I330
I59
tp4153
a(I339
I59
tp4154
a(I339
I50
tp4155
aa(lp4156
(I330
I60
tp4157
a(I330
I69
tp4158
a(I339
I69
tp4159
a(I339
I60
tp4160
aa(lp4161
(I330
I70
tp4162
a(I330
I79
tp4163
a(I339
I79
tp4164
a(I339
I70
tp4165
aa(lp4166
(I330
I80
tp4167
a(I330
I89
tp4168
a(I339
I89
tp4169
a(I339
I80
tp4170
aa(lp4171
(I330
I90
tp4172
a(I330
I99
tp4173
a(I339
I99
tp4174
a(I339
I90
tp4175
aa(lp4176
(I330
I100
tp4177
a(I330
I109
tp4178
a(I339
I109
tp4179
a(I339
I100
tp4180
aa(lp4181
(I330
I110
tp4182
a(I330
I119
tp4183
a(I339
I119
tp4184
a(I339
I110
tp4185
aa(lp4186
(I330
I120
tp4187
a(I330
I129
tp4188
a(I339
I129
tp4189
a(I339
I120
tp4190
aa(lp4191
(I330
I130
tp4192
a(I330
I139
tp4193
a(I339
I139
tp4194
a(I339
I130
tp4195
aa(lp4196
(I330
I140
tp4197
a(I330
I149
tp4198
a(I339
I149
tp4199
a(I339
I140
tp4200
aa(lp4201
(I330
I150
tp4202
a(I330
I159
tp4203
a(I339
I159
tp4204
a(I339
I150
tp4205
aa(lp4206
(I330
I160
tp4207
a(I330
I169
tp4208
a(I339
I169
tp4209
a(I339
I160
tp4210
aa(lp4211
(I330
I170
tp4212
a(I330
I179
tp4213
a(I339
I179
tp4214
a(I339
I170
tp4215
aa(lp4216
(I330
I180
tp4217
a(I330
I189
tp4218
a(I339
I189
tp4219
a(I339
I180
tp4220
aa(lp4221
(I330
I190
tp4222
a(I330
I199
tp4223
a(I339
I199
tp4224
a(I339
I190
tp4225
aa(lp4226
(I330
I200
tp4227
a(I330
I209
tp4228
a(I339
I209
tp4229
a(I339
I200
tp4230
aa(lp4231
(I330
I210
tp4232
a(I330
I219
tp4233
a(I339
I219
tp4234
a(I339
I210
tp4235
aa(lp4236
(I330
I220
tp4237
a(I330
I229
tp4238
a(I339
I229
tp4239
a(I339
I220
tp4240
aa(lp4241
(I330
I230
tp4242
a(I330
I239
tp4243
a(I339
I239
tp4244
a(I339
I230
tp4245
aa(lp4246
(I330
I240
tp4247
a(I330
I249
tp4248
a(I339
I249
tp4249
a(I339
I240
tp4250
aa(lp4251
(I340
I0
tp4252
a(I340
I9
tp4253
a(I349
I9
tp4254
a(I349
I0
tp4255
aa(lp4256
(I340
I10
tp4257
a(I340
I19
tp4258
a(I349
I19
tp4259
a(I349
I10
tp4260
aa(lp4261
(I340
I20
tp4262
a(I340
I29
tp4263
a(I349
I29
tp4264
a(I349
I20
tp4265
aa(lp4266
(I340
I30
tp4267
a(I340
I39
tp4268
a(I349
I39
tp4269
a(I349
I30
tp4270
aa(lp4271
(I340
I40
tp4272
a(I340
I49
tp4273
a(I349
I49
tp4274
a(I349
I40
tp4275
aa(lp4276
(I340
I50
tp4277
a(I340
I59
tp4278
a(I349
I59
tp4279
a(I349
I50
tp4280
aa(lp4281
(I340
I60
tp4282
a(I340
I69
tp4283
a(I349
I69
tp4284
a(I349
I60
tp4285
aa(lp4286
(I340
I70
tp4287
a(I340
I79
tp4288
a(I349
I79
tp4289
a(I349
I70
tp4290
aa(lp4291
(I340
I80
tp4292
a(I340
I89
tp4293
a(I349
I89
tp4294
a(I349
I80
tp4295
aa(lp4296
(I340
I90
tp4297
a(I340
I99
tp4298
a(I349
I99
tp4299
a(I349
I90
tp4300
aa(lp4301
(I340
I100
tp4302
a(I340
I109
tp4303
a(I349
I109
tp4304
a(I349
I100
tp4305
aa(lp4306
(I340
I110
tp4307
a(I340
I119
tp4308
a(I349
I119
tp4309
a(I349
I110
tp4310
aa(lp4311
(I340
I120
tp4312
a(I340
I129
tp4313
a(I349
I129
tp4314
a(I349
I120
tp4315
aa(lp4316
(I340
I130
tp4317
a(I340
I139
tp4318
a(I349
I139
tp4319
a(I349
I130
tp4320
aa(lp4321
(I340
I140
tp4322
a(I340
I149
tp4323
a(I349
I149
tp4324
a(I349
I140
tp4325
aa(lp4326
(I340
I150
tp4327
a(I340
I159
tp4328
a(I349
I159
tp4329
a(I349
I150
tp4330
aa(lp4331
(I340
I160
tp4332
a(I340
I169
tp4333
a(I349
I169
tp4334
a(I349
I160
tp4335
aa(lp4336
(I340
I170
tp4337
a(I340
I179
tp4338
a(I349
I179
tp4339
a(I349
I170
tp4340
aa(lp4341
(I340
I180
tp4342
a(I340
I189
tp4343
a(I349
I189
tp4344
a(I349
I180
tp4345
aa(lp4346
(I340
I190
tp4347
a(I340
I199
tp4348
a(I349
I199
tp4349
a(I349
I190
tp4350
aa(lp4351
(I340
I200
tp4352
a(I340
I209
tp4353
a(I349
I209
tp4354
a(I349
I200
tp4355
aa(lp4356
(I340
I210
tp4357
a(I340
I219
tp4358
a(I349
I219
tp4359
a(I349
I210
tp4360
aa(lp4361
(I340
I220
tp4362
a(I340
I229
tp4363
a(I349
I229
tp4364
a(I349
I220
tp4365
aa(lp4366
(I340
I230
tp4367
a(I340
I239
tp4368
a(I349
I239
tp4369
a(I349
I230
tp4370
aa(lp4371
(I340
I240
tp4372
a(I340
I249
tp4373
a(I349
I249
tp4374
a(I349
I240
tp4375
aa(lp4376
(I350
I0
tp4377
a(I350
I9
tp4378
a(I359
I9
tp4379
a(I359
I0
tp4380
aa(lp4381
(I350
I10
tp4382
a(I350
I19
tp4383
a(I359
I19
tp4384
a(I359
I10
tp4385
aa(lp4386
(I350
I20
tp4387
a(I350
I29
tp4388
a(I359
I29
tp4389
a(I359
I20
tp4390
aa(lp4391
(I350
I30
tp4392
a(I350
I39
tp4393
a(I359
I39
tp4394
a(I359
I30
tp4395
aa(lp4396
(I350
I40
tp4397
a(I350
I49
tp4398
a(I359
I49
tp4399
a(I359
I40
tp4400
aa(lp4401
(I350
I50
tp4402
a(I350
I59
tp4403
a(I359
I59
tp4404
a(I359
I50
tp4405
aa(lp4406
(I350
I60
tp4407
a(I350
I69
tp4408
a(I359
I69
tp4409
a(I359
I60
tp4410
aa(lp4411
(I350
I70
tp4412
a(I350
I79
tp4413
a(I359
I79
tp4414
a(I359
I70
tp4415
aa(lp4416
(I350
I80
tp4417
a(I350
I89
tp4418
a(I359
I89
tp4419
a(I359
I80
tp4420
aa(lp4421
(I350
I90
tp4422
a(I350
I99
tp4423
a(I359
I99
tp4424
a(I359
I90
tp4425
aa(lp4426
(I350
I100
tp4427
a(I350
I109
tp4428
a(I359
I109
tp4429
a(I359
I100
tp4430
aa(lp4431
(I350
I110
tp4432
a(I350
I119
tp4433
a(I359
I119
tp4434
a(I359
I110
tp4435
aa(lp4436
(I350
I120
tp4437
a(I350
I129
tp4438
a(I359
I129
tp4439
a(I359
I120
tp4440
aa(lp4441
(I350
I130
tp4442
a(I350
I139
tp4443
a(I359
I139
tp4444
a(I359
I130
tp4445
aa(lp4446
(I350
I140
tp4447
a(I350
I149
tp4448
a(I359
I149
tp4449
a(I359
I140
tp4450
aa(lp4451
(I350
I150
tp4452
a(I350
I159
tp4453
a(I359
I159
tp4454
a(I359
I150
tp4455
aa(lp4456
(I350
I160
tp4457
a(I350
I169
tp4458
a(I359
I169
tp4459
a(I359
I160
tp4460
aa(lp4461
(I350
I170
tp4462
a(I350
I179
tp4463
a(I359
I179
tp4464
a(I359
I170
tp4465
aa(lp4466
(I350
I180
tp4467
a(I350
I189
tp4468
a(I359
I189
tp4469
a(I359
I180
tp4470
aa(lp4471
(I350
I190
tp4472
a(I350
I199
tp4473
a(I359
I199
tp4474
a(I359
I190
tp4475
aa(lp4476
(I350
I200
tp4477
a(I350
I209
tp4478
a(I359
I209
tp4479
a(I359
I200
tp4480
aa(lp4481
(I350
I210
tp4482
a(I350
I219
tp4483
a(I359
I219
tp4484
a(I359
I210
tp4485
aa(lp4486
(I350
I220
tp4487
a(I350
I229
tp4488
a(I359
I229
tp4489
a(I359
I220
tp4490
aa(lp4491
(I350
I230
tp4492
a(I350
I239
tp4493
a(I359
I239
tp4494
a(I359
I230
tp4495
aa(lp4496
(I350
I240
tp4497
a(I350
I249
tp4498
a(I359
I249
tp4499
a(I359
I240
tp4500
aa(lp4501
(I360
I0
tp4502
a(I360
I9
tp4503
a(I369
I9
tp4504
a(I369
I0
tp4505
aa(lp4506
(I360
I10
tp4507
a(I360
I19
tp4508
a(I369
I19
tp4509
a(I369
I10
tp4510
aa(lp4511
(I360
I20
tp4512
a(I360
I29
tp4513
a(I369
I29
tp4514
a(I369
I20
tp4515
aa(lp4516
(I360
I30
tp4517
a(I360
I39
tp4518
a(I369
I39
tp4519
a(I369
I30
tp4520
aa(lp4521
(I360
I40
tp4522
a(I360
I49
tp4523
a(I369
I49
tp4524
a(I369
I40
tp4525
aa(lp4526
(I360
I50
tp4527
a(I360
I59
tp4528
a(I369
I59
tp4529
a(I369
I50
tp4530
aa(lp4531
(I360
I60
tp4532
a(I360
I69
tp4533
a(I369
I69
tp4534
a(I369
I60
tp4535
aa(lp4536
(I360
I70
tp4537
a(I360
I79
tp4538
a(I369
I79
tp4539
a(I369
I70
tp4540
aa(lp4541
(I360
I80
tp4542
a(I360
I89
tp4543
a(I369
I89
tp4544
a(I369
I80
tp4545
aa.